


ARM Macro Assembler    Page 1 


    1 00000000         ; * ----------------------------------------------------
                       -----------------------------------
    2 00000000         ; *  @file:    startup_S32K144.s
    3 00000000         ; *  @purpose: CMSIS Cortex-M4 Core Device Startup File
    4 00000000         ; *            S32K144
    5 00000000         ; *  @version: 2.0
    6 00000000         ; *  @date:    2017-1-10
    7 00000000         ; *  @build:   b170107
    8 00000000         ; * ----------------------------------------------------
                       -----------------------------------
    9 00000000         ; *
   10 00000000         ; * Copyright (c) 1997 - 2016 , Freescale Semiconductor,
                        Inc.
   11 00000000         ; * Copyright 2016-2017 NXP
   12 00000000         ; * All rights reserved.
   13 00000000         ; *
   14 00000000         ; * THIS SOFTWARE IS PROVIDED BY NXP "AS IS" AND ANY EXP
                       RESSED OR
   15 00000000         ; * IMPLIED WARRANTIES, INCLUDING, BUT NOT LIMITED TO, T
                       HE IMPLIED WARRANTIES
   16 00000000         ; * OF MERCHANTABILITY AND FITNESS FOR A PARTICULAR PURP
                       OSE ARE DISCLAIMED.
   17 00000000         ; * IN NO EVENT SHALL NXP OR ITS CONTRIBUTORS BE LIABLE 
                       FOR ANY DIRECT,
   18 00000000         ; * INDIRECT, INCIDENTAL, SPECIAL, EXEMPLARY, OR CONSEQU
                       ENTIAL DAMAGES
   19 00000000         ; * (INCLUDING, BUT NOT LIMITED TO, PROCUREMENT OF SUBST
                       ITUTE GOODS OR
   20 00000000         ; * SERVICES; LOSS OF USE, DATA, OR PROFITS; OR BUSINESS
                        INTERRUPTION)
   21 00000000         ; * HOWEVER CAUSED AND ON ANY THEORY OF LIABILITY, WHETH
                       ER IN CONTRACT,
   22 00000000         ; * STRICT LIABILITY, OR TORT (INCLUDING NEGLIGENCE OR O
                       THERWISE) ARISING
   23 00000000         ; * IN ANY WAY OUT OF THE USE OF THIS SOFTWARE, EVEN IF 
                       ADVISED OF
   24 00000000         ; * THE POSSIBILITY OF SUCH DAMAGE.
   25 00000000         ; *
   26 00000000         ; *------- <<< Use Configuration Wizard in Context Menu 
                       >>> ------------------
   27 00000000         ; *
   28 00000000         ; ******************************************************
                       ***********************/
   29 00000000         
   30 00000000         
   31 00000000                 PRESERVE8
   32 00000000                 THUMB
   33 00000000         
   34 00000000         
   35 00000000         ; Vector Table Mapped to Address 0 at Reset
   36 00000000         
   37 00000000                 AREA             RESET, DATA, READONLY
   38 00000000                 EXPORT           __Vectors
   39 00000000                 EXPORT           __Vectors_End
   40 00000000                 EXPORT           __Vectors_Size
   41 00000000                 IMPORT           |Image$$ARM_LIB_STACK$$ZI$$Limi
t|
   42 00000000         
   43 00000000 00000000 



ARM Macro Assembler    Page 2 


                       __Vectors
                               DCD              |Image$$ARM_LIB_STACK$$ZI$$Limi
t| 
                                                            ; Top of Stack
   44 00000004 00000000        DCD              Reset_Handler ; Reset Handler
   45 00000008 00000000        DCD              NMI_Handler ;NMI Handler
   46 0000000C 00000000        DCD              HardFault_Handler 
                                                            ;Hard Fault Handler
                                                            
   47 00000010 00000000        DCD              MemManage_Handler 
                                                            ;MPU Fault Handler
   48 00000014 00000000        DCD              BusFault_Handler 
                                                            ;Bus Fault Handler
   49 00000018 00000000        DCD              UsageFault_Handler ;Usage Fault
                                                             Handler
   50 0000001C 00000000        DCD              0           ;Reserved
   51 00000020 00000000        DCD              0           ;Reserved
   52 00000024 00000000        DCD              0           ;Reserved
   53 00000028 00000000        DCD              0           ;Reserved
   54 0000002C 00000000        DCD              SVC_Handler ;SVCall Handler
   55 00000030 00000000        DCD              DebugMon_Handler ;Debug Monitor
                                                             Handler
   56 00000034 00000000        DCD              0           ;Reserved
   57 00000038 00000000        DCD              PendSV_Handler ;PendSV Handler
   58 0000003C 00000000        DCD              SysTick_Handler 
                                                            ;SysTick Handler
   59 00000040         
   60 00000040         ;External Interrupts
   61 00000040 00000000        DCD              DMA0_IRQHandler ;DMA channel 0 
                                                            transfer complete
   62 00000044 00000000        DCD              DMA1_IRQHandler ;DMA channel 1 
                                                            transfer complete
   63 00000048 00000000        DCD              DMA2_IRQHandler ;DMA channel 2 
                                                            transfer complete
   64 0000004C 00000000        DCD              DMA3_IRQHandler ;DMA channel 3 
                                                            transfer complete
   65 00000050 00000000        DCD              DMA4_IRQHandler ;DMA channel 4 
                                                            transfer complete
   66 00000054 00000000        DCD              DMA5_IRQHandler ;DMA channel 5 
                                                            transfer complete
   67 00000058 00000000        DCD              DMA6_IRQHandler ;DMA channel 6 
                                                            transfer complete
   68 0000005C 00000000        DCD              DMA7_IRQHandler ;DMA channel 7 
                                                            transfer complete
   69 00000060 00000000        DCD              DMA8_IRQHandler ;DMA channel 8 
                                                            transfer complete
   70 00000064 00000000        DCD              DMA9_IRQHandler ;DMA channel 9 
                                                            transfer complete
   71 00000068 00000000        DCD              DMA10_IRQHandler ;DMA channel 1
                                                            0 transfer complete
                                                            
   72 0000006C 00000000        DCD              DMA11_IRQHandler ;DMA channel 1
                                                            1 transfer complete
                                                            
   73 00000070 00000000        DCD              DMA12_IRQHandler ;DMA channel 1
                                                            2 transfer complete
                                                            
   74 00000074 00000000        DCD              DMA13_IRQHandler ;DMA channel 1
                                                            3 transfer complete



ARM Macro Assembler    Page 3 


                                                            
   75 00000078 00000000        DCD              DMA14_IRQHandler ;DMA channel 1
                                                            4 transfer complete
                                                            
   76 0000007C 00000000        DCD              DMA15_IRQHandler ;DMA channel 1
                                                            5 transfer complete
                                                            
   77 00000080 00000000        DCD              DMA_Error_IRQHandler ;DMA error
                                                             interrupt channels
                                                             0-15
   78 00000084 00000000        DCD              MCM_IRQHandler ;FPU sources
   79 00000088 00000000        DCD              FTFC_IRQHandler ;FTFC Command c
                                                            omplete
   80 0000008C 00000000        DCD              Read_Collision_IRQHandler ;FTFC
                                                             Read collision
   81 00000090 00000000        DCD              LVD_LVW_IRQHandler ;PMC Low vol
                                                            tage detect interru
                                                            pt
   82 00000094 00000000        DCD              FTFC_Fault_IRQHandler ;FTFC Dou
                                                            ble bit fault detec
                                                            t
   83 00000098 00000000        DCD              WDOG_EWM_IRQHandler ;Single int
                                                            errupt vector for W
                                                            DOG and EWM
   84 0000009C 00000000        DCD              RCM_IRQHandler ;RCM Asynchronou
                                                            s Interrupt
   85 000000A0 00000000        DCD              LPI2C0_Master_IRQHandler ;LPI2C
                                                            0 Master Interrupt
   86 000000A4 00000000        DCD              LPI2C0_Slave_IRQHandler ;LPI2C0
                                                             Slave Interrupt
   87 000000A8 00000000        DCD              LPSPI0_IRQHandler 
                                                            ;LPSPI0 Interrupt
   88 000000AC 00000000        DCD              LPSPI1_IRQHandler 
                                                            ;LPSPI1 Interrupt
   89 000000B0 00000000        DCD              LPSPI2_IRQHandler 
                                                            ;LPSPI2 Interrupt
   90 000000B4 00000000        DCD              Reserved45_IRQHandler ;Reserved
                                                             Interrupt 45
   91 000000B8 00000000        DCD              Reserved46_IRQHandler ;Reserved
                                                             Interrupt 46
   92 000000BC 00000000        DCD              LPUART0_RxTx_IRQHandler ;LPUART
                                                            0 Transmit / Receiv
                                                            e Interrupt
   93 000000C0 00000000        DCD              Reserved48_IRQHandler ;Reserved
                                                             Interrupt 48
   94 000000C4 00000000        DCD              LPUART1_RxTx_IRQHandler ;LPUART
                                                            1 Transmit / Receiv
                                                            e  Interrupt
   95 000000C8 00000000        DCD              Reserved50_IRQHandler ;Reserved
                                                             Interrupt 50
   96 000000CC 00000000        DCD              LPUART2_RxTx_IRQHandler ;LPUART
                                                            2 Transmit / Receiv
                                                            e  Interrupt
   97 000000D0 00000000        DCD              Reserved52_IRQHandler ;Reserved
                                                             Interrupt 52
   98 000000D4 00000000        DCD              Reserved53_IRQHandler ;Reserved
                                                             Interrupt 53
   99 000000D8 00000000        DCD              Reserved54_IRQHandler ;Reserved
                                                             Interrupt 54



ARM Macro Assembler    Page 4 


  100 000000DC 00000000        DCD              ADC0_IRQHandler ;ADC0 interrupt
                                                             request.
  101 000000E0 00000000        DCD              ADC1_IRQHandler ;ADC1 interrupt
                                                             request.
  102 000000E4 00000000        DCD              CMP0_IRQHandler ;CMP0 interrupt
                                                             request
  103 000000E8 00000000        DCD              Reserved58_IRQHandler ;Reserved
                                                             Interrupt 58
  104 000000EC 00000000        DCD              Reserved59_IRQHandler ;Reserved
                                                             Interrupt 59
  105 000000F0 00000000        DCD              ERM_single_fault_IRQHandler ;ER
                                                            M single bit error 
                                                            correction
  106 000000F4 00000000        DCD              ERM_double_fault_IRQHandler ;ER
                                                            M double bit error 
                                                            non-correctable
  107 000000F8 00000000        DCD              RTC_IRQHandler ;RTC alarm inter
                                                            rupt
  108 000000FC 00000000        DCD              RTC_Seconds_IRQHandler ;RTC sec
                                                            onds interrupt
  109 00000100 00000000        DCD              LPIT0_Ch0_IRQHandler ;LPIT0 cha
                                                            nnel 0 overflow int
                                                            errupt
  110 00000104 00000000        DCD              LPIT0_Ch1_IRQHandler ;LPIT0 cha
                                                            nnel 1 overflow int
                                                            errupt
  111 00000108 00000000        DCD              LPIT0_Ch2_IRQHandler ;LPIT0 cha
                                                            nnel 2 overflow int
                                                            errupt
  112 0000010C 00000000        DCD              LPIT0_Ch3_IRQHandler ;LPIT0 cha
                                                            nnel 3 overflow int
                                                            errupt
  113 00000110 00000000        DCD              PDB0_IRQHandler ;PDB0 interrupt
                                                            
  114 00000114 00000000        DCD              Reserved69_IRQHandler ;Reserved
                                                             Interrupt 69
  115 00000118 00000000        DCD              Reserved70_IRQHandler ;Reserved
                                                             Interrupt 70
  116 0000011C 00000000        DCD              Reserved71_IRQHandler ;Reserved
                                                             Interrupt 71
  117 00000120 00000000        DCD              Reserved72_IRQHandler ;Reserved
                                                             Interrupt 72
  118 00000124 00000000        DCD              SCG_IRQHandler ;SCG bus interru
                                                            pt request
  119 00000128 00000000        DCD              LPTMR0_IRQHandler ;LPTIMER inte
                                                            rrupt request
  120 0000012C 00000000        DCD              PORTA_IRQHandler ;Port A pin de
                                                            tect interrupt
  121 00000130 00000000        DCD              PORTB_IRQHandler ;Port B pin de
                                                            tect interrupt
  122 00000134 00000000        DCD              PORTC_IRQHandler ;Port C pin de
                                                            tect interrupt
  123 00000138 00000000        DCD              PORTD_IRQHandler ;Port D pin de
                                                            tect interrupt
  124 0000013C 00000000        DCD              PORTE_IRQHandler ;Port E pin de
                                                            tect interrupt
  125 00000140 00000000        DCD              SWI_IRQHandler 
                                                            ;Software interrupt
                                                            



ARM Macro Assembler    Page 5 


  126 00000144 00000000        DCD              Reserved81_IRQHandler ;Reserved
                                                             Interrupt 81
  127 00000148 00000000        DCD              Reserved82_IRQHandler ;Reserved
                                                             Interrupt 82
  128 0000014C 00000000        DCD              Reserved83_IRQHandler ;Reserved
                                                             Interrupt 83
  129 00000150 00000000        DCD              PDB1_IRQHandler ;PDB1 interrupt
                                                            
  130 00000154 00000000        DCD              FLEXIO_IRQHandler 
                                                            ;FlexIO Interrupt
  131 00000158 00000000        DCD              Reserved86_IRQHandler ;Reserved
                                                             Interrupt 86
  132 0000015C 00000000        DCD              Reserved87_IRQHandler ;Reserved
                                                             Interrupt 87
  133 00000160 00000000        DCD              Reserved88_IRQHandler ;Reserved
                                                             Interrupt 88
  134 00000164 00000000        DCD              Reserved89_IRQHandler ;Reserved
                                                             Interrupt 89
  135 00000168 00000000        DCD              Reserved90_IRQHandler ;Reserved
                                                             Interrupt 90
  136 0000016C 00000000        DCD              Reserved91_IRQHandler ;Reserved
                                                             Interrupt 91
  137 00000170 00000000        DCD              Reserved92_IRQHandler ;Reserved
                                                             Interrupt 92
  138 00000174 00000000        DCD              Reserved93_IRQHandler ;Reserved
                                                             Interrupt 93
  139 00000178 00000000        DCD              CAN0_ORed_IRQHandler ;CAN0 OR'e
                                                            d [Bus Off OR Trans
                                                            mit Warning OR Rece
                                                            ive Warning]
  140 0000017C 00000000        DCD              CAN0_Error_IRQHandler ;CAN0 Int
                                                            errupt indicating t
                                                            hat errors were det
                                                            ected on the CAN bu
                                                            s
  141 00000180 00000000        DCD              CAN0_Wake_Up_IRQHandler ;CAN0 I
                                                            nterrupt asserted w
                                                            hen Pretended Netwo
                                                            rking operation is 
                                                            enabled, and a vali
                                                            d message matches t
                                                            he selected filter 
                                                            criteria during Low
                                                             Power mode
  142 00000184 00000000        DCD              CAN0_ORed_0_15_MB_IRQHandler ;C
                                                            AN0 OR'ed Message b
                                                            uffer (0-15)
  143 00000188 00000000        DCD              CAN0_ORed_16_31_MB_IRQHandler ;
                                                            CAN0 OR'ed Message 
                                                            buffer (16-31)
  144 0000018C 00000000        DCD              Reserved99_IRQHandler ;Reserved
                                                             Interrupt 99
  145 00000190 00000000        DCD              Reserved100_IRQHandler ;Reserve
                                                            d Interrupt 100
  146 00000194 00000000        DCD              CAN1_ORed_IRQHandler ;CAN1 OR'e
                                                            d [Bus Off OR Trans
                                                            mit Warning OR Rece
                                                            ive Warning]
  147 00000198 00000000        DCD              CAN1_Error_IRQHandler ;CAN1 Int



ARM Macro Assembler    Page 6 


                                                            errupt indicating t
                                                            hat errors were det
                                                            ected on the CAN bu
                                                            s
  148 0000019C 00000000        DCD              Reserved103_IRQHandler ;Reserve
                                                            d Interrupt 103
  149 000001A0 00000000        DCD              CAN1_ORed_0_15_MB_IRQHandler ;C
                                                            AN1 OR'ed Interrupt
                                                             for Message buffer
                                                             (0-15)
  150 000001A4 00000000        DCD              Reserved105_IRQHandler ;Reserve
                                                            d Interrupt 105
  151 000001A8 00000000        DCD              Reserved106_IRQHandler ;Reserve
                                                            d Interrupt 106
  152 000001AC 00000000        DCD              Reserved107_IRQHandler ;Reserve
                                                            d Interrupt 107
  153 000001B0 00000000        DCD              CAN2_ORed_IRQHandler ;CAN2 OR'e
                                                            d [Bus Off OR Trans
                                                            mit Warning OR Rece
                                                            ive Warning]
  154 000001B4 00000000        DCD              CAN2_Error_IRQHandler ;CAN2 Int
                                                            errupt indicating t
                                                            hat errors were det
                                                            ected on the CAN bu
                                                            s
  155 000001B8 00000000        DCD              Reserved110_IRQHandler ;Reserve
                                                            d Interrupt 110
  156 000001BC 00000000        DCD              CAN2_ORed_0_15_MB_IRQHandler ;C
                                                            AN2 OR'ed Message b
                                                            uffer (0-15)
  157 000001C0 00000000        DCD              Reserved112_IRQHandler ;Reserve
                                                            d Interrupt 112
  158 000001C4 00000000        DCD              Reserved113_IRQHandler ;Reserve
                                                            d Interrupt 113
  159 000001C8 00000000        DCD              Reserved114_IRQHandler ;Reserve
                                                            d Interrupt 114
  160 000001CC 00000000        DCD              FTM0_Ch0_Ch1_IRQHandler ;FTM0 C
                                                            hannel 0 and 1 inte
                                                            rrupt
  161 000001D0 00000000        DCD              FTM0_Ch2_Ch3_IRQHandler ;FTM0 C
                                                            hannel 2 and 3 inte
                                                            rrupt
  162 000001D4 00000000        DCD              FTM0_Ch4_Ch5_IRQHandler ;FTM0 C
                                                            hannel 4 and 5 inte
                                                            rrupt
  163 000001D8 00000000        DCD              FTM0_Ch6_Ch7_IRQHandler ;FTM0 C
                                                            hannel 6 and 7 inte
                                                            rrupt
  164 000001DC 00000000        DCD              FTM0_Fault_IRQHandler ;FTM0 Fau
                                                            lt interrupt
  165 000001E0 00000000        DCD              FTM0_Ovf_Reload_IRQHandler ;FTM
                                                            0 Counter overflow 
                                                            and Reload interrup
                                                            t
  166 000001E4 00000000        DCD              FTM1_Ch0_Ch1_IRQHandler ;FTM1 C
                                                            hannel 0 and 1 inte
                                                            rrupt
  167 000001E8 00000000        DCD              FTM1_Ch2_Ch3_IRQHandler ;FTM1 C
                                                            hannel 2 and 3 inte



ARM Macro Assembler    Page 7 


                                                            rrupt
  168 000001EC 00000000        DCD              FTM1_Ch4_Ch5_IRQHandler ;FTM1 C
                                                            hannel 4 and 5 inte
                                                            rrupt
  169 000001F0 00000000        DCD              FTM1_Ch6_Ch7_IRQHandler ;FTM1 C
                                                            hannel 6 and 7 inte
                                                            rrupt
  170 000001F4 00000000        DCD              FTM1_Fault_IRQHandler ;FTM1 Fau
                                                            lt interrupt
  171 000001F8 00000000        DCD              FTM1_Ovf_Reload_IRQHandler ;FTM
                                                            1 Counter overflow 
                                                            and Reload interrup
                                                            t
  172 000001FC 00000000        DCD              FTM2_Ch0_Ch1_IRQHandler ;FTM2 C
                                                            hannel 0 and 1 inte
                                                            rrupt
  173 00000200 00000000        DCD              FTM2_Ch2_Ch3_IRQHandler ;FTM2 C
                                                            hannel 2 and 3 inte
                                                            rrupt
  174 00000204 00000000        DCD              FTM2_Ch4_Ch5_IRQHandler ;FTM2 C
                                                            hannel 4 and 5 inte
                                                            rrupt
  175 00000208 00000000        DCD              FTM2_Ch6_Ch7_IRQHandler ;FTM2 C
                                                            hannel 6 and 7 inte
                                                            rrupt
  176 0000020C 00000000        DCD              FTM2_Fault_IRQHandler ;FTM2 Fau
                                                            lt interrupt
  177 00000210 00000000        DCD              FTM2_Ovf_Reload_IRQHandler ;FTM
                                                            2 Counter overflow 
                                                            and Reload interrup
                                                            t
  178 00000214 00000000        DCD              FTM3_Ch0_Ch1_IRQHandler ;FTM3 C
                                                            hannel 0 and 1 inte
                                                            rrupt
  179 00000218 00000000        DCD              FTM3_Ch2_Ch3_IRQHandler ;FTM3 C
                                                            hannel 2 and 3 inte
                                                            rrupt
  180 0000021C 00000000        DCD              FTM3_Ch4_Ch5_IRQHandler ;FTM3 C
                                                            hannel 4 and 5 inte
                                                            rrupt
  181 00000220 00000000        DCD              FTM3_Ch6_Ch7_IRQHandler ;FTM3 C
                                                            hannel 6 and 7 inte
                                                            rrupt
  182 00000224 00000000        DCD              FTM3_Fault_IRQHandler ;FTM3 Fau
                                                            lt interrupt
  183 00000228 00000000        DCD              FTM3_Ovf_Reload_IRQHandler ;FTM
                                                            3 Counter overflow 
                                                            and Reload interrup
                                                            t
  184 0000022C 00000000        DCD              DefaultISR  ;139
  185 00000230 00000000        DCD              DefaultISR  ;140
  186 00000234 00000000        DCD              DefaultISR  ;141
  187 00000238 00000000        DCD              DefaultISR  ;142
  188 0000023C 00000000        DCD              DefaultISR  ;143
  189 00000240 00000000        DCD              DefaultISR  ;144
  190 00000244 00000000        DCD              DefaultISR  ;145
  191 00000248 00000000        DCD              DefaultISR  ;146
  192 0000024C 00000000        DCD              DefaultISR  ;147
  193 00000250 00000000        DCD              DefaultISR  ;148



ARM Macro Assembler    Page 8 


  194 00000254 00000000        DCD              DefaultISR  ;149
  195 00000258 00000000        DCD              DefaultISR  ;150
  196 0000025C 00000000        DCD              DefaultISR  ;151
  197 00000260 00000000        DCD              DefaultISR  ;152
  198 00000264 00000000        DCD              DefaultISR  ;153
  199 00000268 00000000        DCD              DefaultISR  ;154
  200 0000026C 00000000        DCD              DefaultISR  ;155
  201 00000270 00000000        DCD              DefaultISR  ;156
  202 00000274 00000000        DCD              DefaultISR  ;157
  203 00000278 00000000        DCD              DefaultISR  ;158
  204 0000027C 00000000        DCD              DefaultISR  ;159
  205 00000280 00000000        DCD              DefaultISR  ;160
  206 00000284 00000000        DCD              DefaultISR  ;161
  207 00000288 00000000        DCD              DefaultISR  ;162
  208 0000028C 00000000        DCD              DefaultISR  ;163
  209 00000290 00000000        DCD              DefaultISR  ;164
  210 00000294 00000000        DCD              DefaultISR  ;165
  211 00000298 00000000        DCD              DefaultISR  ;166
  212 0000029C 00000000        DCD              DefaultISR  ;167
  213 000002A0 00000000        DCD              DefaultISR  ;168
  214 000002A4 00000000        DCD              DefaultISR  ;169
  215 000002A8 00000000        DCD              DefaultISR  ;170
  216 000002AC 00000000        DCD              DefaultISR  ;171
  217 000002B0 00000000        DCD              DefaultISR  ;172
  218 000002B4 00000000        DCD              DefaultISR  ;173
  219 000002B8 00000000        DCD              DefaultISR  ;174
  220 000002BC 00000000        DCD              DefaultISR  ;175
  221 000002C0 00000000        DCD              DefaultISR  ;176
  222 000002C4 00000000        DCD              DefaultISR  ;177
  223 000002C8 00000000        DCD              DefaultISR  ;178
  224 000002CC 00000000        DCD              DefaultISR  ;179
  225 000002D0 00000000        DCD              DefaultISR  ;180
  226 000002D4 00000000        DCD              DefaultISR  ;181
  227 000002D8 00000000        DCD              DefaultISR  ;182
  228 000002DC 00000000        DCD              DefaultISR  ;183
  229 000002E0 00000000        DCD              DefaultISR  ;184
  230 000002E4 00000000        DCD              DefaultISR  ;185
  231 000002E8 00000000        DCD              DefaultISR  ;186
  232 000002EC 00000000        DCD              DefaultISR  ;187
  233 000002F0 00000000        DCD              DefaultISR  ;188
  234 000002F4 00000000        DCD              DefaultISR  ;189
  235 000002F8 00000000        DCD              DefaultISR  ;190
  236 000002FC 00000000        DCD              DefaultISR  ;191
  237 00000300 00000000        DCD              DefaultISR  ;192
  238 00000304 00000000        DCD              DefaultISR  ;193
  239 00000308 00000000        DCD              DefaultISR  ;194
  240 0000030C 00000000        DCD              DefaultISR  ;195
  241 00000310 00000000        DCD              DefaultISR  ;196
  242 00000314 00000000        DCD              DefaultISR  ;197
  243 00000318 00000000        DCD              DefaultISR  ;198
  244 0000031C 00000000        DCD              DefaultISR  ;199
  245 00000320 00000000        DCD              DefaultISR  ;200
  246 00000324 00000000        DCD              DefaultISR  ;201
  247 00000328 00000000        DCD              DefaultISR  ;202
  248 0000032C 00000000        DCD              DefaultISR  ;203
  249 00000330 00000000        DCD              DefaultISR  ;204
  250 00000334 00000000        DCD              DefaultISR  ;205
  251 00000338 00000000        DCD              DefaultISR  ;206
  252 0000033C 00000000        DCD              DefaultISR  ;207



ARM Macro Assembler    Page 9 


  253 00000340 00000000        DCD              DefaultISR  ;208
  254 00000344 00000000        DCD              DefaultISR  ;209
  255 00000348 00000000        DCD              DefaultISR  ;210
  256 0000034C 00000000        DCD              DefaultISR  ;211
  257 00000350 00000000        DCD              DefaultISR  ;212
  258 00000354 00000000        DCD              DefaultISR  ;213
  259 00000358 00000000        DCD              DefaultISR  ;214
  260 0000035C 00000000        DCD              DefaultISR  ;215
  261 00000360 00000000        DCD              DefaultISR  ;216
  262 00000364 00000000        DCD              DefaultISR  ;217
  263 00000368 00000000        DCD              DefaultISR  ;218
  264 0000036C 00000000        DCD              DefaultISR  ;219
  265 00000370 00000000        DCD              DefaultISR  ;220
  266 00000374 00000000        DCD              DefaultISR  ;221
  267 00000378 00000000        DCD              DefaultISR  ;222
  268 0000037C 00000000        DCD              DefaultISR  ;223
  269 00000380 00000000        DCD              DefaultISR  ;224
  270 00000384 00000000        DCD              DefaultISR  ;225
  271 00000388 00000000        DCD              DefaultISR  ;226
  272 0000038C 00000000        DCD              DefaultISR  ;227
  273 00000390 00000000        DCD              DefaultISR  ;228
  274 00000394 00000000        DCD              DefaultISR  ;229
  275 00000398 00000000        DCD              DefaultISR  ;230
  276 0000039C 00000000        DCD              DefaultISR  ;231
  277 000003A0 00000000        DCD              DefaultISR  ;232
  278 000003A4 00000000        DCD              DefaultISR  ;233
  279 000003A8 00000000        DCD              DefaultISR  ;234
  280 000003AC 00000000        DCD              DefaultISR  ;235
  281 000003B0 00000000        DCD              DefaultISR  ;236
  282 000003B4 00000000        DCD              DefaultISR  ;237
  283 000003B8 00000000        DCD              DefaultISR  ;238
  284 000003BC 00000000        DCD              DefaultISR  ;239
  285 000003C0 00000000        DCD              DefaultISR  ;240
  286 000003C4 00000000        DCD              DefaultISR  ;241
  287 000003C8 00000000        DCD              DefaultISR  ;242
  288 000003CC 00000000        DCD              DefaultISR  ;243
  289 000003D0 00000000        DCD              DefaultISR  ;244
  290 000003D4 00000000        DCD              DefaultISR  ;245
  291 000003D8 00000000        DCD              DefaultISR  ;246
  292 000003DC 00000000        DCD              DefaultISR  ;247
  293 000003E0 00000000        DCD              DefaultISR  ;248
  294 000003E4 00000000        DCD              DefaultISR  ;249
  295 000003E8 00000000        DCD              DefaultISR  ;250
  296 000003EC 00000000        DCD              DefaultISR  ;251
  297 000003F0 00000000        DCD              DefaultISR  ;252
  298 000003F4 00000000        DCD              DefaultISR  ;253
  299 000003F8 00000000        DCD              DefaultISR  ;254
  300 000003FC FFFFFFFF        DCD              0xFFFFFFFF  ;Reserved for user 
                                                            TRIM value
  301 00000400         __Vectors_End
  302 00000400         
  303 00000400 00000400 
                       __Vectors_Size
                               EQU              __Vectors_End - __Vectors
  304 00000400         
  305 00000400         ; <h> Flash Configuration
  306 00000400         ;   <i> 16-byte flash configuration field that stores de
                       fault protection settings (loaded on reset)
  307 00000400         ;   <i> and security information that allows the MCU to 



ARM Macro Assembler    Page 10 


                       restrict access to the FTFL module.
  308 00000400         ;   <h> Backdoor Comparison Key
  309 00000400         ;     <o0>  Backdoor Comparison Key 0.  <0x0-0xFF:2>
  310 00000400         ;     <o1>  Backdoor Comparison Key 1.  <0x0-0xFF:2>
  311 00000400         ;     <o2>  Backdoor Comparison Key 2.  <0x0-0xFF:2>
  312 00000400         ;     <o3>  Backdoor Comparison Key 3.  <0x0-0xFF:2>
  313 00000400         ;     <o4>  Backdoor Comparison Key 4.  <0x0-0xFF:2>
  314 00000400         ;     <o5>  Backdoor Comparison Key 5.  <0x0-0xFF:2>
  315 00000400         ;     <o6>  Backdoor Comparison Key 6.  <0x0-0xFF:2>
  316 00000400         ;     <o7>  Backdoor Comparison Key 7.  <0x0-0xFF:2>
  317 00000400 000000FF 
                       BackDoorK0
                               EQU              0xFF
  318 00000400 000000FF 
                       BackDoorK1
                               EQU              0xFF
  319 00000400 000000FF 
                       BackDoorK2
                               EQU              0xFF
  320 00000400 000000FF 
                       BackDoorK3
                               EQU              0xFF
  321 00000400 000000FF 
                       BackDoorK4
                               EQU              0xFF
  322 00000400 000000FF 
                       BackDoorK5
                               EQU              0xFF
  323 00000400 000000FF 
                       BackDoorK6
                               EQU              0xFF
  324 00000400 000000FF 
                       BackDoorK7
                               EQU              0xFF
  325 00000400         ;   </h>
  326 00000400         ;   <h> Program flash protection bytes (FPROT)
  327 00000400         ;     <i> Each program flash region can be protected fro
                       m program and erase operation by setting the associated 
                       PROT bit.
  328 00000400         ;     <i> Each bit protects a 1/32 region of the program
                        flash memory.
  329 00000400         ;     <h> FPROT0
  330 00000400         ;       <i> Program Flash Region Protect Register 0
  331 00000400         ;       <i> 1/32 - 8/32 region
  332 00000400         ;       <o.0>   FPROT0.0
  333 00000400         ;       <o.1>   FPROT0.1
  334 00000400         ;       <o.2>   FPROT0.2
  335 00000400         ;       <o.3>   FPROT0.3
  336 00000400         ;       <o.4>   FPROT0.4
  337 00000400         ;       <o.5>   FPROT0.5
  338 00000400         ;       <o.6>   FPROT0.6
  339 00000400         ;       <o.7>   FPROT0.7
  340 00000400 00000000 
                       nFPROT0 EQU              0x00
  341 00000400 000000FF 
                       FPROT0  EQU              nFPROT0:EOR:0xFF
  342 00000400         ;     </h>
  343 00000400         ;     <h> FPROT1
  344 00000400         ;       <i> Program Flash Region Protect Register 1



ARM Macro Assembler    Page 11 


  345 00000400         ;       <i> 9/32 - 16/32 region
  346 00000400         ;       <o.0>   FPROT1.0
  347 00000400         ;       <o.1>   FPROT1.1
  348 00000400         ;       <o.2>   FPROT1.2
  349 00000400         ;       <o.3>   FPROT1.3
  350 00000400         ;       <o.4>   FPROT1.4
  351 00000400         ;       <o.5>   FPROT1.5
  352 00000400         ;       <o.6>   FPROT1.6
  353 00000400         ;       <o.7>   FPROT1.7
  354 00000400 00000000 
                       nFPROT1 EQU              0x00
  355 00000400 000000FF 
                       FPROT1  EQU              nFPROT1:EOR:0xFF
  356 00000400         ;     </h>
  357 00000400         ;     <h> FPROT2
  358 00000400         ;       <i> Program Flash Region Protect Register 2
  359 00000400         ;       <i> 17/32 - 24/32 region
  360 00000400         ;       <o.0>   FPROT2.0
  361 00000400         ;       <o.1>   FPROT2.1
  362 00000400         ;       <o.2>   FPROT2.2
  363 00000400         ;       <o.3>   FPROT2.3
  364 00000400         ;       <o.4>   FPROT2.4
  365 00000400         ;       <o.5>   FPROT2.5
  366 00000400         ;       <o.6>   FPROT2.6
  367 00000400         ;       <o.7>   FPROT2.7
  368 00000400 00000000 
                       nFPROT2 EQU              0x00
  369 00000400 000000FF 
                       FPROT2  EQU              nFPROT2:EOR:0xFF
  370 00000400         ;     </h>
  371 00000400         ;     <h> FPROT3
  372 00000400         ;       <i> Program Flash Region Protect Register 3
  373 00000400         ;       <i> 25/32 - 32/32 region
  374 00000400         ;       <o.0>   FPROT3.0
  375 00000400         ;       <o.1>   FPROT3.1
  376 00000400         ;       <o.2>   FPROT3.2
  377 00000400         ;       <o.3>   FPROT3.3
  378 00000400         ;       <o.4>   FPROT3.4
  379 00000400         ;       <o.5>   FPROT3.5
  380 00000400         ;       <o.6>   FPROT3.6
  381 00000400         ;       <o.7>   FPROT3.7
  382 00000400 00000000 
                       nFPROT3 EQU              0x00
  383 00000400 000000FF 
                       FPROT3  EQU              nFPROT3:EOR:0xFF
  384 00000400         ;     </h>
  385 00000400         ;   </h>
  386 00000400         ;   <h> Data flash protection byte (FDPROT)
  387 00000400         ;     <i> Each bit protects a 1/8 region of the data fla
                       sh memory.
  388 00000400         ;     <i> (Program flash only devices: Reserved)
  389 00000400         ;       <o.0>   FDPROT.0
  390 00000400         ;       <o.1>   FDPROT.1
  391 00000400         ;       <o.2>   FDPROT.2
  392 00000400         ;       <o.3>   FDPROT.3
  393 00000400         ;       <o.4>   FDPROT.4
  394 00000400         ;       <o.5>   FDPROT.5
  395 00000400         ;       <o.6>   FDPROT.6
  396 00000400         ;       <o.7>   FDPROT.7



ARM Macro Assembler    Page 12 


  397 00000400 00000000 
                       nFDPROT EQU              0x00
  398 00000400 000000FF 
                       FDPROT  EQU              nFDPROT:EOR:0xFF
  399 00000400         ;   </h>
  400 00000400         ;   <h> EEPROM protection byte (FEPROT)
  401 00000400         ;     <i> FlexNVM devices: Each bit protects a 1/8 regio
                       n of the EEPROM.
  402 00000400         ;     <i> (Program flash only devices: Reserved)
  403 00000400         ;       <o.0>   FEPROT.0
  404 00000400         ;       <o.1>   FEPROT.1
  405 00000400         ;       <o.2>   FEPROT.2
  406 00000400         ;       <o.3>   FEPROT.3
  407 00000400         ;       <o.4>   FEPROT.4
  408 00000400         ;       <o.5>   FEPROT.5
  409 00000400         ;       <o.6>   FEPROT.6
  410 00000400         ;       <o.7>   FEPROT.7
  411 00000400 00000000 
                       nFEPROT EQU              0x00
  412 00000400 000000FF 
                       FEPROT  EQU              nFEPROT:EOR:0xFF
  413 00000400         ;   </h>
  414 00000400         ;   <h> Flash nonvolatile option byte (FOPT)
  415 00000400         ;     <i> Allows the user to customize the operation of 
                       the MCU at boot time.
  416 00000400         ;     <o.0> LPBOOT
  417 00000400         ;       <0=> Core and system clock divider (OUTDIV1) is 
                       0x1 (divide by 2).
  418 00000400         ;       <1=> Core and system clock divider (OUTDIV1) is 
                       0x0 (divide by 1).
  419 00000400         ;     <o.2> NMI_DIS
  420 00000400         ;       <0=> NMI interrupts are always blocked
  421 00000400         ;       <1=> NMI_b pin/interrupts reset default to enabl
                       ed
  422 00000400         ;     <o.3> RESET_PIN_CFG
  423 00000400         ;       <0=> RESET pin is disabled following a POR and c
                       annot be enabled as reset function
  424 00000400         ;       <1=> RESET_b pin is dedicated
  425 00000400 0000007F 
                       FOPT    EQU              0x7F
  426 00000400         ;   </h>
  427 00000400         ;   <h> Flash security byte (FSEC)
  428 00000400         ;     <i> WARNING: If SEC field is configured as "MCU se
                       curity status is secure" and MEEN field is configured as
                        "Mass erase is disabled",
  429 00000400         ;     <i> MCU's security status cannot be set back to un
                       secure state since Mass erase via the debugger is blocke
                       d !!!
  430 00000400         ;     <o.0..1> SEC
  431 00000400         ;       <2=> MCU security status is unsecure
  432 00000400         ;       <3=> MCU security status is secure
  433 00000400         ;         <i> Flash Security
  434 00000400         ;     <o.2..3> FSLACC
  435 00000400         ;       <2=> Freescale factory access denied
  436 00000400         ;       <3=> Freescale factory access granted
  437 00000400         ;         <i> Freescale Failure Analysis Access Code
  438 00000400         ;     <o.4..5> MEEN
  439 00000400         ;       <2=> Mass erase is disabled
  440 00000400         ;       <3=> Mass erase is enabled



ARM Macro Assembler    Page 13 


  441 00000400         ;     <o.6..7> KEYEN
  442 00000400         ;       <2=> Backdoor key access enabled
  443 00000400         ;       <3=> Backdoor key access disabled
  444 00000400         ;         <i> Backdoor Key Security Enable
  445 00000400 000000FE 
                       FSEC    EQU              0xFE
  446 00000400         ;   </h>
  447 00000400         ; </h>
  448 00000400                 IF               :LNOT::DEF:RAM_TARGET
  449 00000400                 AREA             FlashConfig, DATA, READONLY
  450 00000000         __FlashConfig
  451 00000000 FF FF FF 
              FF               DCB              BackDoorK0, BackDoorK1, BackDoo
rK2, BackDoorK3
  452 00000004 FF FF FF 
              FF               DCB              BackDoorK4, BackDoorK5, BackDoo
rK6, BackDoorK7
  453 00000008 FF FF FF 
              FF               DCB              FPROT0    , FPROT1    , FPROT2 
   , FPROT3
  454 0000000C FE 7F FF 
              FF               DCB              FSEC      , FOPT      , FEPROT 
   , FDPROT
  455 00000010                 ENDIF
  456 00000010         
  457 00000010         
  458 00000010                 AREA             |.text|, CODE, READONLY
  459 00000000         
  460 00000000         ; Reset Handler
  461 00000000         
  462 00000000         Reset_Handler
                               PROC
  463 00000000                 EXPORT           Reset_Handler             [WEAK
]
  464 00000000                 IMPORT           SystemInit
  465 00000000                 IMPORT           init_data_bss
  466 00000000                 IMPORT           __main
  467 00000000         
  468 00000000                 IF               :LNOT::DEF:RAM_TARGET
  469 00000000 4809            LDR              R0, =FlashConfig ; dummy read, 
                                                            workaround for flas
                                                            hConfig
  470 00000002                 ENDIF
  471 00000002         
  472 00000002 B672            CPSID            I           ; Mask interrupts
  473 00000004 4809            LDR              R0, =SystemInit
  474 00000006 4780            BLX              R0
  475 00000008 4809            LDR              R0, =init_data_bss
  476 0000000A 4780            BLX              R0
  477 0000000C B662            CPSIE            i           ; Unmask interrupts
                                                            
  478 0000000E 4809            LDR              R0, =__main
  479 00000010 4700            BX               R0
  480 00000012                 ENDP
  481 00000012         
  482 00000012         
  483 00000012         ; Dummy Exception Handlers (infinite loops which can be 
                       modified)
  485 00000012         NMI_Handler



ARM Macro Assembler    Page 14 


                               PROC
  486 00000012                 EXPORT           NMI_Handler         [WEAK]
  487 00000012 E7FE            B                .
  488 00000014                 ENDP
  490 00000014         HardFault_Handler
                               PROC
  491 00000014                 EXPORT           HardFault_Handler         [WEAK
]
  492 00000014 E7FE            B                .
  493 00000016                 ENDP
  495 00000016         MemManage_Handler
                               PROC
  496 00000016                 EXPORT           MemManage_Handler         [WEAK
]
  497 00000016 E7FE            B                .
  498 00000018                 ENDP
  500 00000018         BusFault_Handler
                               PROC
  501 00000018                 EXPORT           BusFault_Handler         [WEAK]
  502 00000018 E7FE            B                .
  503 0000001A                 ENDP
  505 0000001A         UsageFault_Handler
                               PROC
  506 0000001A                 EXPORT           UsageFault_Handler         [WEA
K]
  507 0000001A E7FE            B                .
  508 0000001C                 ENDP
  510 0000001C         SVC_Handler
                               PROC
  511 0000001C                 EXPORT           SVC_Handler         [WEAK]
  512 0000001C E7FE            B                .
  513 0000001E                 ENDP
  515 0000001E         DebugMon_Handler
                               PROC
  516 0000001E                 EXPORT           DebugMon_Handler         [WEAK]
  517 0000001E E7FE            B                .
  518 00000020                 ENDP
  520 00000020         PendSV_Handler
                               PROC
  521 00000020                 EXPORT           PendSV_Handler         [WEAK]
  522 00000020 E7FE            B                .
  523 00000022                 ENDP
  525 00000022         SysTick_Handler
                               PROC
  526 00000022                 EXPORT           SysTick_Handler         [WEAK]
  527 00000022 E7FE            B                .
  528 00000024                 ENDP
  530 00000024         Default_Handler
                               PROC
  531 00000024                 EXPORT           DMA0_IRQHandler                
     [WEAK]
  532 00000024                 EXPORT           DMA1_IRQHandler                
     [WEAK]
  533 00000024                 EXPORT           DMA2_IRQHandler                
     [WEAK]
  534 00000024                 EXPORT           DMA3_IRQHandler                
     [WEAK]
  535 00000024                 EXPORT           DMA4_IRQHandler                
     [WEAK]



ARM Macro Assembler    Page 15 


  536 00000024                 EXPORT           DMA5_IRQHandler                
     [WEAK]
  537 00000024                 EXPORT           DMA6_IRQHandler                
     [WEAK]
  538 00000024                 EXPORT           DMA7_IRQHandler                
     [WEAK]
  539 00000024                 EXPORT           DMA8_IRQHandler                
     [WEAK]
  540 00000024                 EXPORT           DMA9_IRQHandler                
     [WEAK]
  541 00000024                 EXPORT           DMA10_IRQHandler               
     [WEAK]
  542 00000024                 EXPORT           DMA11_IRQHandler               
     [WEAK]
  543 00000024                 EXPORT           DMA12_IRQHandler               
     [WEAK]
  544 00000024                 EXPORT           DMA13_IRQHandler               
     [WEAK]
  545 00000024                 EXPORT           DMA14_IRQHandler               
     [WEAK]
  546 00000024                 EXPORT           DMA15_IRQHandler               
     [WEAK]
  547 00000024                 EXPORT           DMA_Error_IRQHandler           
     [WEAK]
  548 00000024                 EXPORT           MCM_IRQHandler                 
     [WEAK]
  549 00000024                 EXPORT           FTFC_IRQHandler                
     [WEAK]
  550 00000024                 EXPORT           Read_Collision_IRQHandler      
     [WEAK]
  551 00000024                 EXPORT           LVD_LVW_IRQHandler             
     [WEAK]
  552 00000024                 EXPORT           FTFC_Fault_IRQHandler          
     [WEAK]
  553 00000024                 EXPORT           WDOG_EWM_IRQHandler            
     [WEAK]
  554 00000024                 EXPORT           RCM_IRQHandler                 
     [WEAK]
  555 00000024                 EXPORT           LPI2C0_Master_IRQHandler       
     [WEAK]
  556 00000024                 EXPORT           LPI2C0_Slave_IRQHandler        
     [WEAK]
  557 00000024                 EXPORT           LPSPI0_IRQHandler              
     [WEAK]
  558 00000024                 EXPORT           LPSPI1_IRQHandler              
     [WEAK]
  559 00000024                 EXPORT           LPSPI2_IRQHandler              
     [WEAK]
  560 00000024                 EXPORT           Reserved45_IRQHandler          
     [WEAK]
  561 00000024                 EXPORT           Reserved46_IRQHandler          
     [WEAK]
  562 00000024                 EXPORT           LPUART0_RxTx_IRQHandler        
     [WEAK]
  563 00000024                 EXPORT           Reserved48_IRQHandler          
     [WEAK]
  564 00000024                 EXPORT           LPUART1_RxTx_IRQHandler        
     [WEAK]
  565 00000024                 EXPORT           Reserved50_IRQHandler          



ARM Macro Assembler    Page 16 


     [WEAK]
  566 00000024                 EXPORT           LPUART2_RxTx_IRQHandler        
     [WEAK]
  567 00000024                 EXPORT           Reserved52_IRQHandler          
     [WEAK]
  568 00000024                 EXPORT           Reserved53_IRQHandler          
     [WEAK]
  569 00000024                 EXPORT           Reserved54_IRQHandler          
     [WEAK]
  570 00000024                 EXPORT           ADC0_IRQHandler                
     [WEAK]
  571 00000024                 EXPORT           ADC1_IRQHandler                
     [WEAK]
  572 00000024                 EXPORT           CMP0_IRQHandler                
     [WEAK]
  573 00000024                 EXPORT           Reserved58_IRQHandler          
     [WEAK]
  574 00000024                 EXPORT           Reserved59_IRQHandler          
     [WEAK]
  575 00000024                 EXPORT           ERM_single_fault_IRQHandler    
     [WEAK]
  576 00000024                 EXPORT           ERM_double_fault_IRQHandler    
     [WEAK]
  577 00000024                 EXPORT           RTC_IRQHandler                 
     [WEAK]
  578 00000024                 EXPORT           RTC_Seconds_IRQHandler         
     [WEAK]
  579 00000024                 EXPORT           LPIT0_Ch0_IRQHandler           
     [WEAK]
  580 00000024                 EXPORT           LPIT0_Ch1_IRQHandler           
     [WEAK]
  581 00000024                 EXPORT           LPIT0_Ch2_IRQHandler           
     [WEAK]
  582 00000024                 EXPORT           LPIT0_Ch3_IRQHandler           
     [WEAK]
  583 00000024                 EXPORT           PDB0_IRQHandler                
     [WEAK]
  584 00000024                 EXPORT           Reserved69_IRQHandler          
     [WEAK]
  585 00000024                 EXPORT           Reserved70_IRQHandler          
     [WEAK]
  586 00000024                 EXPORT           Reserved71_IRQHandler          
     [WEAK]
  587 00000024                 EXPORT           Reserved72_IRQHandler          
     [WEAK]
  588 00000024                 EXPORT           SCG_IRQHandler                 
     [WEAK]
  589 00000024                 EXPORT           LPTMR0_IRQHandler              
     [WEAK]
  590 00000024                 EXPORT           PORTA_IRQHandler               
     [WEAK]
  591 00000024                 EXPORT           PORTB_IRQHandler               
     [WEAK]
  592 00000024                 EXPORT           PORTC_IRQHandler               
     [WEAK]
  593 00000024                 EXPORT           PORTD_IRQHandler               
     [WEAK]
  594 00000024                 EXPORT           PORTE_IRQHandler               
     [WEAK]



ARM Macro Assembler    Page 17 


  595 00000024                 EXPORT           SWI_IRQHandler                 
     [WEAK]
  596 00000024                 EXPORT           Reserved81_IRQHandler          
     [WEAK]
  597 00000024                 EXPORT           Reserved82_IRQHandler          
     [WEAK]
  598 00000024                 EXPORT           Reserved83_IRQHandler          
     [WEAK]
  599 00000024                 EXPORT           PDB1_IRQHandler                
     [WEAK]
  600 00000024                 EXPORT           FLEXIO_IRQHandler              
     [WEAK]
  601 00000024                 EXPORT           Reserved86_IRQHandler          
     [WEAK]
  602 00000024                 EXPORT           Reserved87_IRQHandler          
     [WEAK]
  603 00000024                 EXPORT           Reserved88_IRQHandler          
     [WEAK]
  604 00000024                 EXPORT           Reserved89_IRQHandler          
     [WEAK]
  605 00000024                 EXPORT           Reserved90_IRQHandler          
     [WEAK]
  606 00000024                 EXPORT           Reserved91_IRQHandler          
     [WEAK]
  607 00000024                 EXPORT           Reserved92_IRQHandler          
     [WEAK]
  608 00000024                 EXPORT           Reserved93_IRQHandler          
     [WEAK]
  609 00000024                 EXPORT           CAN0_ORed_IRQHandler           
     [WEAK]
  610 00000024                 EXPORT           CAN0_Error_IRQHandler          
     [WEAK]
  611 00000024                 EXPORT           CAN0_Wake_Up_IRQHandler        
     [WEAK]
  612 00000024                 EXPORT           CAN0_ORed_0_15_MB_IRQHandler   
     [WEAK]
  613 00000024                 EXPORT           CAN0_ORed_16_31_MB_IRQHandler  
     [WEAK]
  614 00000024                 EXPORT           Reserved99_IRQHandler          
     [WEAK]
  615 00000024                 EXPORT           Reserved100_IRQHandler         
     [WEAK]
  616 00000024                 EXPORT           CAN1_ORed_IRQHandler           
     [WEAK]
  617 00000024                 EXPORT           CAN1_Error_IRQHandler          
     [WEAK]
  618 00000024                 EXPORT           Reserved103_IRQHandler         
     [WEAK]
  619 00000024                 EXPORT           CAN1_ORed_0_15_MB_IRQHandler   
     [WEAK]
  620 00000024                 EXPORT           Reserved105_IRQHandler         
     [WEAK]
  621 00000024                 EXPORT           Reserved106_IRQHandler         
     [WEAK]
  622 00000024                 EXPORT           Reserved107_IRQHandler         
     [WEAK]
  623 00000024                 EXPORT           CAN2_ORed_IRQHandler           
     [WEAK]
  624 00000024                 EXPORT           CAN2_Error_IRQHandler          



ARM Macro Assembler    Page 18 


     [WEAK]
  625 00000024                 EXPORT           Reserved110_IRQHandler         
     [WEAK]
  626 00000024                 EXPORT           CAN2_ORed_0_15_MB_IRQHandler   
     [WEAK]
  627 00000024                 EXPORT           Reserved112_IRQHandler         
     [WEAK]
  628 00000024                 EXPORT           Reserved113_IRQHandler         
     [WEAK]
  629 00000024                 EXPORT           Reserved114_IRQHandler         
     [WEAK]
  630 00000024                 EXPORT           FTM0_Ch0_Ch1_IRQHandler        
     [WEAK]
  631 00000024                 EXPORT           FTM0_Ch2_Ch3_IRQHandler        
     [WEAK]
  632 00000024                 EXPORT           FTM0_Ch4_Ch5_IRQHandler        
     [WEAK]
  633 00000024                 EXPORT           FTM0_Ch6_Ch7_IRQHandler        
     [WEAK]
  634 00000024                 EXPORT           FTM0_Fault_IRQHandler          
     [WEAK]
  635 00000024                 EXPORT           FTM0_Ovf_Reload_IRQHandler     
     [WEAK]
  636 00000024                 EXPORT           FTM1_Ch0_Ch1_IRQHandler        
     [WEAK]
  637 00000024                 EXPORT           FTM1_Ch2_Ch3_IRQHandler        
     [WEAK]
  638 00000024                 EXPORT           FTM1_Ch4_Ch5_IRQHandler        
     [WEAK]
  639 00000024                 EXPORT           FTM1_Ch6_Ch7_IRQHandler        
     [WEAK]
  640 00000024                 EXPORT           FTM1_Fault_IRQHandler          
     [WEAK]
  641 00000024                 EXPORT           FTM1_Ovf_Reload_IRQHandler     
     [WEAK]
  642 00000024                 EXPORT           FTM2_Ch0_Ch1_IRQHandler        
     [WEAK]
  643 00000024                 EXPORT           FTM2_Ch2_Ch3_IRQHandler        
     [WEAK]
  644 00000024                 EXPORT           FTM2_Ch4_Ch5_IRQHandler        
     [WEAK]
  645 00000024                 EXPORT           FTM2_Ch6_Ch7_IRQHandler        
     [WEAK]
  646 00000024                 EXPORT           FTM2_Fault_IRQHandler          
     [WEAK]
  647 00000024                 EXPORT           FTM2_Ovf_Reload_IRQHandler     
     [WEAK]
  648 00000024                 EXPORT           FTM3_Ch0_Ch1_IRQHandler        
     [WEAK]
  649 00000024                 EXPORT           FTM3_Ch2_Ch3_IRQHandler        
     [WEAK]
  650 00000024                 EXPORT           FTM3_Ch4_Ch5_IRQHandler        
     [WEAK]
  651 00000024                 EXPORT           FTM3_Ch6_Ch7_IRQHandler        
     [WEAK]
  652 00000024                 EXPORT           FTM3_Fault_IRQHandler          
     [WEAK]
  653 00000024                 EXPORT           FTM3_Ovf_Reload_IRQHandler     
     [WEAK]



ARM Macro Assembler    Page 19 


  654 00000024                 EXPORT           DefaultISR                     
     [WEAK]
  655 00000024         
  656 00000024         DMA0_IRQHandler
  657 00000024         DMA1_IRQHandler
  658 00000024         DMA2_IRQHandler
  659 00000024         DMA3_IRQHandler
  660 00000024         DMA4_IRQHandler
  661 00000024         DMA5_IRQHandler
  662 00000024         DMA6_IRQHandler
  663 00000024         DMA7_IRQHandler
  664 00000024         DMA8_IRQHandler
  665 00000024         DMA9_IRQHandler
  666 00000024         DMA10_IRQHandler
  667 00000024         DMA11_IRQHandler
  668 00000024         DMA12_IRQHandler
  669 00000024         DMA13_IRQHandler
  670 00000024         DMA14_IRQHandler
  671 00000024         DMA15_IRQHandler
  672 00000024         DMA_Error_IRQHandler
  673 00000024         MCM_IRQHandler
  674 00000024         FTFC_IRQHandler
  675 00000024         Read_Collision_IRQHandler
  676 00000024         LVD_LVW_IRQHandler
  677 00000024         FTFC_Fault_IRQHandler
  678 00000024         WDOG_EWM_IRQHandler
  679 00000024         RCM_IRQHandler
  680 00000024         LPI2C0_Master_IRQHandler
  681 00000024         LPI2C0_Slave_IRQHandler
  682 00000024         LPSPI0_IRQHandler
  683 00000024         LPSPI1_IRQHandler
  684 00000024         LPSPI2_IRQHandler
  685 00000024         Reserved45_IRQHandler
  686 00000024         Reserved46_IRQHandler
  687 00000024         LPUART0_RxTx_IRQHandler
  688 00000024         Reserved48_IRQHandler
  689 00000024         LPUART1_RxTx_IRQHandler
  690 00000024         Reserved50_IRQHandler
  691 00000024         LPUART2_RxTx_IRQHandler
  692 00000024         Reserved52_IRQHandler
  693 00000024         Reserved53_IRQHandler
  694 00000024         Reserved54_IRQHandler
  695 00000024         ADC0_IRQHandler
  696 00000024         ADC1_IRQHandler
  697 00000024         CMP0_IRQHandler
  698 00000024         Reserved58_IRQHandler
  699 00000024         Reserved59_IRQHandler
  700 00000024         ERM_single_fault_IRQHandler
  701 00000024         ERM_double_fault_IRQHandler
  702 00000024         RTC_IRQHandler
  703 00000024         RTC_Seconds_IRQHandler
  704 00000024         LPIT0_Ch0_IRQHandler
  705 00000024         LPIT0_Ch1_IRQHandler
  706 00000024         LPIT0_Ch2_IRQHandler
  707 00000024         LPIT0_Ch3_IRQHandler
  708 00000024         PDB0_IRQHandler
  709 00000024         Reserved69_IRQHandler
  710 00000024         Reserved70_IRQHandler
  711 00000024         Reserved71_IRQHandler



ARM Macro Assembler    Page 20 


  712 00000024         Reserved72_IRQHandler
  713 00000024         SCG_IRQHandler
  714 00000024         LPTMR0_IRQHandler
  715 00000024         PORTA_IRQHandler
  716 00000024         PORTB_IRQHandler
  717 00000024         PORTC_IRQHandler
  718 00000024         PORTD_IRQHandler
  719 00000024         PORTE_IRQHandler
  720 00000024         SWI_IRQHandler
  721 00000024         Reserved81_IRQHandler
  722 00000024         Reserved82_IRQHandler
  723 00000024         Reserved83_IRQHandler
  724 00000024         PDB1_IRQHandler
  725 00000024         FLEXIO_IRQHandler
  726 00000024         Reserved86_IRQHandler
  727 00000024         Reserved87_IRQHandler
  728 00000024         Reserved88_IRQHandler
  729 00000024         Reserved89_IRQHandler
  730 00000024         Reserved90_IRQHandler
  731 00000024         Reserved91_IRQHandler
  732 00000024         Reserved92_IRQHandler
  733 00000024         Reserved93_IRQHandler
  734 00000024         CAN0_ORed_IRQHandler
  735 00000024         CAN0_Error_IRQHandler
  736 00000024         CAN0_Wake_Up_IRQHandler
  737 00000024         CAN0_ORed_0_15_MB_IRQHandler
  738 00000024         CAN0_ORed_16_31_MB_IRQHandler
  739 00000024         Reserved99_IRQHandler
  740 00000024         Reserved100_IRQHandler
  741 00000024         CAN1_ORed_IRQHandler
  742 00000024         CAN1_Error_IRQHandler
  743 00000024         Reserved103_IRQHandler
  744 00000024         CAN1_ORed_0_15_MB_IRQHandler
  745 00000024         Reserved105_IRQHandler
  746 00000024         Reserved106_IRQHandler
  747 00000024         Reserved107_IRQHandler
  748 00000024         CAN2_ORed_IRQHandler
  749 00000024         CAN2_Error_IRQHandler
  750 00000024         Reserved110_IRQHandler
  751 00000024         CAN2_ORed_0_15_MB_IRQHandler
  752 00000024         Reserved112_IRQHandler
  753 00000024         Reserved113_IRQHandler
  754 00000024         Reserved114_IRQHandler
  755 00000024         FTM0_Ch0_Ch1_IRQHandler
  756 00000024         FTM0_Ch2_Ch3_IRQHandler
  757 00000024         FTM0_Ch4_Ch5_IRQHandler
  758 00000024         FTM0_Ch6_Ch7_IRQHandler
  759 00000024         FTM0_Fault_IRQHandler
  760 00000024         FTM0_Ovf_Reload_IRQHandler
  761 00000024         FTM1_Ch0_Ch1_IRQHandler
  762 00000024         FTM1_Ch2_Ch3_IRQHandler
  763 00000024         FTM1_Ch4_Ch5_IRQHandler
  764 00000024         FTM1_Ch6_Ch7_IRQHandler
  765 00000024         FTM1_Fault_IRQHandler
  766 00000024         FTM1_Ovf_Reload_IRQHandler
  767 00000024         FTM2_Ch0_Ch1_IRQHandler
  768 00000024         FTM2_Ch2_Ch3_IRQHandler
  769 00000024         FTM2_Ch4_Ch5_IRQHandler
  770 00000024         FTM2_Ch6_Ch7_IRQHandler



ARM Macro Assembler    Page 21 


  771 00000024         FTM2_Fault_IRQHandler
  772 00000024         FTM2_Ovf_Reload_IRQHandler
  773 00000024         FTM3_Ch0_Ch1_IRQHandler
  774 00000024         FTM3_Ch2_Ch3_IRQHandler
  775 00000024         FTM3_Ch4_Ch5_IRQHandler
  776 00000024         FTM3_Ch6_Ch7_IRQHandler
  777 00000024         FTM3_Fault_IRQHandler
  778 00000024         FTM3_Ovf_Reload_IRQHandler
  779 00000024         DefaultISR
  780 00000024 E7FE            B                DefaultISR
  781 00000026                 ENDP
  782 00000026         
  783 00000026 00 00           ALIGN
  784 00000028         
  785 00000028         
  786 00000028                 END
              00000000 
              00000000 
              00000000 
              00000000 
Command Line: --debug --xref --diag_suppress=9931 --cpu=Cortex-M4.fp --apcs=int
erwork --depend=.\flash\startup_s32k144.d -o.\flash\startup_s32k144.o -I..\RTX5
_Blinky -I.\RTE\CMSIS -I.\RTE\Compiler -I.\RTE\Device\S32K144HFxxxLHx -I.\RTE\_
S32K144_Flash -ID:\Keil_v5\ARM\PACK\ARM\CMSIS\5.9.0\CMSIS\Core\Include -ID:\Kei
l_v5\ARM\PACK\ARM\CMSIS\5.9.0\CMSIS\DSP\Include -ID:\Keil_v5\ARM\PACK\ARM\CMSIS
\5.9.0\CMSIS\DSP\PrivateInclude -ID:\Keil_v5\ARM\PACK\ARM\CMSIS\5.9.0\CMSIS\RTO
S2\Include -ID:\Keil_v5\ARM\PACK\ARM\CMSIS\5.9.0\CMSIS\RTOS2\RTX\Include -ID:\K
eil_v5\ARM\PACK\Keil\ARM_Compiler\1.5.0\Include -ID:\Keil_v5\ARM\PACK\Keil\S32_
SDK_DFP\1.2.0\platform\devices -ID:\Keil_v5\ARM\PACK\Keil\S32_SDK_DFP\1.2.0\pla
tform\devices\common -ID:\Keil_v5\ARM\PACK\Keil\S32_SDK_DFP\1.2.0\platform\driv
ers\inc -ID:\Keil_v5\ARM\PACK\Keil\S32_SDK_DFP\1.2.0\platform\drivers\src\clock
\S32K1xx --predefine="__UVISION_VERSION SETA 525" --predefine="_RTE_ SETA 1" --
predefine="CPU_S32K144HFT0VLLT SETA 1" --list=.\flash\startup_s32k144.lst RTE\D
evice\S32K144HFxxxLHx\startup_S32K144.s



ARM Macro Assembler    Page 1 Alphabetic symbol ordering
Relocatable symbols

RESET 00000000

Symbol: RESET
   Definitions
      At line 37 in file RTE\Device\S32K144HFxxxLHx\startup_S32K144.s
   Uses
      None
Comment: RESET unused
__Vectors 00000000

Symbol: __Vectors
   Definitions
      At line 43 in file RTE\Device\S32K144HFxxxLHx\startup_S32K144.s
   Uses
      At line 38 in file RTE\Device\S32K144HFxxxLHx\startup_S32K144.s
      At line 303 in file RTE\Device\S32K144HFxxxLHx\startup_S32K144.s

__Vectors_End 00000400

Symbol: __Vectors_End
   Definitions
      At line 301 in file RTE\Device\S32K144HFxxxLHx\startup_S32K144.s
   Uses
      At line 39 in file RTE\Device\S32K144HFxxxLHx\startup_S32K144.s
      At line 303 in file RTE\Device\S32K144HFxxxLHx\startup_S32K144.s

3 symbols



ARM Macro Assembler    Page 1 Alphabetic symbol ordering
Relocatable symbols

FlashConfig 00000000

Symbol: FlashConfig
   Definitions
      At line 449 in file RTE\Device\S32K144HFxxxLHx\startup_S32K144.s
   Uses
      At line 469 in file RTE\Device\S32K144HFxxxLHx\startup_S32K144.s
Comment: FlashConfig used once
__FlashConfig 00000000

Symbol: __FlashConfig
   Definitions
      At line 450 in file RTE\Device\S32K144HFxxxLHx\startup_S32K144.s
   Uses
      None
Comment: __FlashConfig unused
2 symbols



ARM Macro Assembler    Page 1 Alphabetic symbol ordering
Relocatable symbols

.text 00000000

Symbol: .text
   Definitions
      At line 458 in file RTE\Device\S32K144HFxxxLHx\startup_S32K144.s
   Uses
      None
Comment: .text unused
ADC0_IRQHandler 00000024

Symbol: ADC0_IRQHandler
   Definitions
      At line 695 in file RTE\Device\S32K144HFxxxLHx\startup_S32K144.s
   Uses
      At line 100 in file RTE\Device\S32K144HFxxxLHx\startup_S32K144.s
      At line 570 in file RTE\Device\S32K144HFxxxLHx\startup_S32K144.s

ADC1_IRQHandler 00000024

Symbol: ADC1_IRQHandler
   Definitions
      At line 696 in file RTE\Device\S32K144HFxxxLHx\startup_S32K144.s
   Uses
      At line 101 in file RTE\Device\S32K144HFxxxLHx\startup_S32K144.s
      At line 571 in file RTE\Device\S32K144HFxxxLHx\startup_S32K144.s

BusFault_Handler 00000018

Symbol: BusFault_Handler
   Definitions
      At line 500 in file RTE\Device\S32K144HFxxxLHx\startup_S32K144.s
   Uses
      At line 48 in file RTE\Device\S32K144HFxxxLHx\startup_S32K144.s
      At line 501 in file RTE\Device\S32K144HFxxxLHx\startup_S32K144.s

CAN0_Error_IRQHandler 00000024

Symbol: CAN0_Error_IRQHandler
   Definitions
      At line 735 in file RTE\Device\S32K144HFxxxLHx\startup_S32K144.s
   Uses
      At line 140 in file RTE\Device\S32K144HFxxxLHx\startup_S32K144.s
      At line 610 in file RTE\Device\S32K144HFxxxLHx\startup_S32K144.s

CAN0_ORed_0_15_MB_IRQHandler 00000024

Symbol: CAN0_ORed_0_15_MB_IRQHandler
   Definitions
      At line 737 in file RTE\Device\S32K144HFxxxLHx\startup_S32K144.s
   Uses
      At line 142 in file RTE\Device\S32K144HFxxxLHx\startup_S32K144.s
      At line 612 in file RTE\Device\S32K144HFxxxLHx\startup_S32K144.s

CAN0_ORed_16_31_MB_IRQHandler 00000024

Symbol: CAN0_ORed_16_31_MB_IRQHandler
   Definitions
      At line 738 in file RTE\Device\S32K144HFxxxLHx\startup_S32K144.s
   Uses



ARM Macro Assembler    Page 2 Alphabetic symbol ordering
Relocatable symbols

      At line 143 in file RTE\Device\S32K144HFxxxLHx\startup_S32K144.s
      At line 613 in file RTE\Device\S32K144HFxxxLHx\startup_S32K144.s

CAN0_ORed_IRQHandler 00000024

Symbol: CAN0_ORed_IRQHandler
   Definitions
      At line 734 in file RTE\Device\S32K144HFxxxLHx\startup_S32K144.s
   Uses
      At line 139 in file RTE\Device\S32K144HFxxxLHx\startup_S32K144.s
      At line 609 in file RTE\Device\S32K144HFxxxLHx\startup_S32K144.s

CAN0_Wake_Up_IRQHandler 00000024

Symbol: CAN0_Wake_Up_IRQHandler
   Definitions
      At line 736 in file RTE\Device\S32K144HFxxxLHx\startup_S32K144.s
   Uses
      At line 141 in file RTE\Device\S32K144HFxxxLHx\startup_S32K144.s
      At line 611 in file RTE\Device\S32K144HFxxxLHx\startup_S32K144.s

CAN1_Error_IRQHandler 00000024

Symbol: CAN1_Error_IRQHandler
   Definitions
      At line 742 in file RTE\Device\S32K144HFxxxLHx\startup_S32K144.s
   Uses
      At line 147 in file RTE\Device\S32K144HFxxxLHx\startup_S32K144.s
      At line 617 in file RTE\Device\S32K144HFxxxLHx\startup_S32K144.s

CAN1_ORed_0_15_MB_IRQHandler 00000024

Symbol: CAN1_ORed_0_15_MB_IRQHandler
   Definitions
      At line 744 in file RTE\Device\S32K144HFxxxLHx\startup_S32K144.s
   Uses
      At line 149 in file RTE\Device\S32K144HFxxxLHx\startup_S32K144.s
      At line 619 in file RTE\Device\S32K144HFxxxLHx\startup_S32K144.s

CAN1_ORed_IRQHandler 00000024

Symbol: CAN1_ORed_IRQHandler
   Definitions
      At line 741 in file RTE\Device\S32K144HFxxxLHx\startup_S32K144.s
   Uses
      At line 146 in file RTE\Device\S32K144HFxxxLHx\startup_S32K144.s
      At line 616 in file RTE\Device\S32K144HFxxxLHx\startup_S32K144.s

CAN2_Error_IRQHandler 00000024

Symbol: CAN2_Error_IRQHandler
   Definitions
      At line 749 in file RTE\Device\S32K144HFxxxLHx\startup_S32K144.s
   Uses
      At line 154 in file RTE\Device\S32K144HFxxxLHx\startup_S32K144.s
      At line 624 in file RTE\Device\S32K144HFxxxLHx\startup_S32K144.s

CAN2_ORed_0_15_MB_IRQHandler 00000024




ARM Macro Assembler    Page 3 Alphabetic symbol ordering
Relocatable symbols

Symbol: CAN2_ORed_0_15_MB_IRQHandler
   Definitions
      At line 751 in file RTE\Device\S32K144HFxxxLHx\startup_S32K144.s
   Uses
      At line 156 in file RTE\Device\S32K144HFxxxLHx\startup_S32K144.s
      At line 626 in file RTE\Device\S32K144HFxxxLHx\startup_S32K144.s

CAN2_ORed_IRQHandler 00000024

Symbol: CAN2_ORed_IRQHandler
   Definitions
      At line 748 in file RTE\Device\S32K144HFxxxLHx\startup_S32K144.s
   Uses
      At line 153 in file RTE\Device\S32K144HFxxxLHx\startup_S32K144.s
      At line 623 in file RTE\Device\S32K144HFxxxLHx\startup_S32K144.s

CMP0_IRQHandler 00000024

Symbol: CMP0_IRQHandler
   Definitions
      At line 697 in file RTE\Device\S32K144HFxxxLHx\startup_S32K144.s
   Uses
      At line 102 in file RTE\Device\S32K144HFxxxLHx\startup_S32K144.s
      At line 572 in file RTE\Device\S32K144HFxxxLHx\startup_S32K144.s

DMA0_IRQHandler 00000024

Symbol: DMA0_IRQHandler
   Definitions
      At line 656 in file RTE\Device\S32K144HFxxxLHx\startup_S32K144.s
   Uses
      At line 61 in file RTE\Device\S32K144HFxxxLHx\startup_S32K144.s
      At line 531 in file RTE\Device\S32K144HFxxxLHx\startup_S32K144.s

DMA10_IRQHandler 00000024

Symbol: DMA10_IRQHandler
   Definitions
      At line 666 in file RTE\Device\S32K144HFxxxLHx\startup_S32K144.s
   Uses
      At line 71 in file RTE\Device\S32K144HFxxxLHx\startup_S32K144.s
      At line 541 in file RTE\Device\S32K144HFxxxLHx\startup_S32K144.s

DMA11_IRQHandler 00000024

Symbol: DMA11_IRQHandler
   Definitions
      At line 667 in file RTE\Device\S32K144HFxxxLHx\startup_S32K144.s
   Uses
      At line 72 in file RTE\Device\S32K144HFxxxLHx\startup_S32K144.s
      At line 542 in file RTE\Device\S32K144HFxxxLHx\startup_S32K144.s

DMA12_IRQHandler 00000024

Symbol: DMA12_IRQHandler
   Definitions
      At line 668 in file RTE\Device\S32K144HFxxxLHx\startup_S32K144.s
   Uses
      At line 73 in file RTE\Device\S32K144HFxxxLHx\startup_S32K144.s



ARM Macro Assembler    Page 4 Alphabetic symbol ordering
Relocatable symbols

      At line 543 in file RTE\Device\S32K144HFxxxLHx\startup_S32K144.s

DMA13_IRQHandler 00000024

Symbol: DMA13_IRQHandler
   Definitions
      At line 669 in file RTE\Device\S32K144HFxxxLHx\startup_S32K144.s
   Uses
      At line 74 in file RTE\Device\S32K144HFxxxLHx\startup_S32K144.s
      At line 544 in file RTE\Device\S32K144HFxxxLHx\startup_S32K144.s

DMA14_IRQHandler 00000024

Symbol: DMA14_IRQHandler
   Definitions
      At line 670 in file RTE\Device\S32K144HFxxxLHx\startup_S32K144.s
   Uses
      At line 75 in file RTE\Device\S32K144HFxxxLHx\startup_S32K144.s
      At line 545 in file RTE\Device\S32K144HFxxxLHx\startup_S32K144.s

DMA15_IRQHandler 00000024

Symbol: DMA15_IRQHandler
   Definitions
      At line 671 in file RTE\Device\S32K144HFxxxLHx\startup_S32K144.s
   Uses
      At line 76 in file RTE\Device\S32K144HFxxxLHx\startup_S32K144.s
      At line 546 in file RTE\Device\S32K144HFxxxLHx\startup_S32K144.s

DMA1_IRQHandler 00000024

Symbol: DMA1_IRQHandler
   Definitions
      At line 657 in file RTE\Device\S32K144HFxxxLHx\startup_S32K144.s
   Uses
      At line 62 in file RTE\Device\S32K144HFxxxLHx\startup_S32K144.s
      At line 532 in file RTE\Device\S32K144HFxxxLHx\startup_S32K144.s

DMA2_IRQHandler 00000024

Symbol: DMA2_IRQHandler
   Definitions
      At line 658 in file RTE\Device\S32K144HFxxxLHx\startup_S32K144.s
   Uses
      At line 63 in file RTE\Device\S32K144HFxxxLHx\startup_S32K144.s
      At line 533 in file RTE\Device\S32K144HFxxxLHx\startup_S32K144.s

DMA3_IRQHandler 00000024

Symbol: DMA3_IRQHandler
   Definitions
      At line 659 in file RTE\Device\S32K144HFxxxLHx\startup_S32K144.s
   Uses
      At line 64 in file RTE\Device\S32K144HFxxxLHx\startup_S32K144.s
      At line 534 in file RTE\Device\S32K144HFxxxLHx\startup_S32K144.s

DMA4_IRQHandler 00000024

Symbol: DMA4_IRQHandler



ARM Macro Assembler    Page 5 Alphabetic symbol ordering
Relocatable symbols

   Definitions
      At line 660 in file RTE\Device\S32K144HFxxxLHx\startup_S32K144.s
   Uses
      At line 65 in file RTE\Device\S32K144HFxxxLHx\startup_S32K144.s
      At line 535 in file RTE\Device\S32K144HFxxxLHx\startup_S32K144.s

DMA5_IRQHandler 00000024

Symbol: DMA5_IRQHandler
   Definitions
      At line 661 in file RTE\Device\S32K144HFxxxLHx\startup_S32K144.s
   Uses
      At line 66 in file RTE\Device\S32K144HFxxxLHx\startup_S32K144.s
      At line 536 in file RTE\Device\S32K144HFxxxLHx\startup_S32K144.s

DMA6_IRQHandler 00000024

Symbol: DMA6_IRQHandler
   Definitions
      At line 662 in file RTE\Device\S32K144HFxxxLHx\startup_S32K144.s
   Uses
      At line 67 in file RTE\Device\S32K144HFxxxLHx\startup_S32K144.s
      At line 537 in file RTE\Device\S32K144HFxxxLHx\startup_S32K144.s

DMA7_IRQHandler 00000024

Symbol: DMA7_IRQHandler
   Definitions
      At line 663 in file RTE\Device\S32K144HFxxxLHx\startup_S32K144.s
   Uses
      At line 68 in file RTE\Device\S32K144HFxxxLHx\startup_S32K144.s
      At line 538 in file RTE\Device\S32K144HFxxxLHx\startup_S32K144.s

DMA8_IRQHandler 00000024

Symbol: DMA8_IRQHandler
   Definitions
      At line 664 in file RTE\Device\S32K144HFxxxLHx\startup_S32K144.s
   Uses
      At line 69 in file RTE\Device\S32K144HFxxxLHx\startup_S32K144.s
      At line 539 in file RTE\Device\S32K144HFxxxLHx\startup_S32K144.s

DMA9_IRQHandler 00000024

Symbol: DMA9_IRQHandler
   Definitions
      At line 665 in file RTE\Device\S32K144HFxxxLHx\startup_S32K144.s
   Uses
      At line 70 in file RTE\Device\S32K144HFxxxLHx\startup_S32K144.s
      At line 540 in file RTE\Device\S32K144HFxxxLHx\startup_S32K144.s

DMA_Error_IRQHandler 00000024

Symbol: DMA_Error_IRQHandler
   Definitions
      At line 672 in file RTE\Device\S32K144HFxxxLHx\startup_S32K144.s
   Uses
      At line 77 in file RTE\Device\S32K144HFxxxLHx\startup_S32K144.s
      At line 547 in file RTE\Device\S32K144HFxxxLHx\startup_S32K144.s



ARM Macro Assembler    Page 6 Alphabetic symbol ordering
Relocatable symbols


DebugMon_Handler 0000001E

Symbol: DebugMon_Handler
   Definitions
      At line 515 in file RTE\Device\S32K144HFxxxLHx\startup_S32K144.s
   Uses
      At line 55 in file RTE\Device\S32K144HFxxxLHx\startup_S32K144.s
      At line 516 in file RTE\Device\S32K144HFxxxLHx\startup_S32K144.s

DefaultISR 00000024

Symbol: DefaultISR
   Definitions
      At line 779 in file RTE\Device\S32K144HFxxxLHx\startup_S32K144.s
   Uses
      At line 184 in file RTE\Device\S32K144HFxxxLHx\startup_S32K144.s
      At line 185 in file RTE\Device\S32K144HFxxxLHx\startup_S32K144.s
      At line 186 in file RTE\Device\S32K144HFxxxLHx\startup_S32K144.s
      At line 187 in file RTE\Device\S32K144HFxxxLHx\startup_S32K144.s
      At line 188 in file RTE\Device\S32K144HFxxxLHx\startup_S32K144.s
      At line 189 in file RTE\Device\S32K144HFxxxLHx\startup_S32K144.s
      At line 190 in file RTE\Device\S32K144HFxxxLHx\startup_S32K144.s
      At line 191 in file RTE\Device\S32K144HFxxxLHx\startup_S32K144.s
      At line 192 in file RTE\Device\S32K144HFxxxLHx\startup_S32K144.s
      At line 193 in file RTE\Device\S32K144HFxxxLHx\startup_S32K144.s
      At line 194 in file RTE\Device\S32K144HFxxxLHx\startup_S32K144.s
      At line 195 in file RTE\Device\S32K144HFxxxLHx\startup_S32K144.s
      At line 196 in file RTE\Device\S32K144HFxxxLHx\startup_S32K144.s
      At line 197 in file RTE\Device\S32K144HFxxxLHx\startup_S32K144.s
      At line 198 in file RTE\Device\S32K144HFxxxLHx\startup_S32K144.s
      At line 199 in file RTE\Device\S32K144HFxxxLHx\startup_S32K144.s
      At line 200 in file RTE\Device\S32K144HFxxxLHx\startup_S32K144.s
      At line 201 in file RTE\Device\S32K144HFxxxLHx\startup_S32K144.s
      At line 202 in file RTE\Device\S32K144HFxxxLHx\startup_S32K144.s
      At line 203 in file RTE\Device\S32K144HFxxxLHx\startup_S32K144.s
      At line 204 in file RTE\Device\S32K144HFxxxLHx\startup_S32K144.s
      At line 205 in file RTE\Device\S32K144HFxxxLHx\startup_S32K144.s
      At line 206 in file RTE\Device\S32K144HFxxxLHx\startup_S32K144.s
      At line 207 in file RTE\Device\S32K144HFxxxLHx\startup_S32K144.s
      At line 208 in file RTE\Device\S32K144HFxxxLHx\startup_S32K144.s
      At line 209 in file RTE\Device\S32K144HFxxxLHx\startup_S32K144.s
      At line 210 in file RTE\Device\S32K144HFxxxLHx\startup_S32K144.s
      At line 211 in file RTE\Device\S32K144HFxxxLHx\startup_S32K144.s
      At line 212 in file RTE\Device\S32K144HFxxxLHx\startup_S32K144.s
      At line 213 in file RTE\Device\S32K144HFxxxLHx\startup_S32K144.s
      At line 214 in file RTE\Device\S32K144HFxxxLHx\startup_S32K144.s
      At line 215 in file RTE\Device\S32K144HFxxxLHx\startup_S32K144.s
      At line 216 in file RTE\Device\S32K144HFxxxLHx\startup_S32K144.s
      At line 217 in file RTE\Device\S32K144HFxxxLHx\startup_S32K144.s
      At line 218 in file RTE\Device\S32K144HFxxxLHx\startup_S32K144.s
      At line 219 in file RTE\Device\S32K144HFxxxLHx\startup_S32K144.s
      At line 220 in file RTE\Device\S32K144HFxxxLHx\startup_S32K144.s
      At line 221 in file RTE\Device\S32K144HFxxxLHx\startup_S32K144.s
      At line 222 in file RTE\Device\S32K144HFxxxLHx\startup_S32K144.s
      At line 223 in file RTE\Device\S32K144HFxxxLHx\startup_S32K144.s
      At line 224 in file RTE\Device\S32K144HFxxxLHx\startup_S32K144.s
      At line 225 in file RTE\Device\S32K144HFxxxLHx\startup_S32K144.s
      At line 226 in file RTE\Device\S32K144HFxxxLHx\startup_S32K144.s



ARM Macro Assembler    Page 7 Alphabetic symbol ordering
Relocatable symbols

      At line 227 in file RTE\Device\S32K144HFxxxLHx\startup_S32K144.s
      At line 228 in file RTE\Device\S32K144HFxxxLHx\startup_S32K144.s
      At line 229 in file RTE\Device\S32K144HFxxxLHx\startup_S32K144.s
      At line 230 in file RTE\Device\S32K144HFxxxLHx\startup_S32K144.s
      At line 231 in file RTE\Device\S32K144HFxxxLHx\startup_S32K144.s
      At line 232 in file RTE\Device\S32K144HFxxxLHx\startup_S32K144.s
      At line 233 in file RTE\Device\S32K144HFxxxLHx\startup_S32K144.s
      At line 234 in file RTE\Device\S32K144HFxxxLHx\startup_S32K144.s
      At line 235 in file RTE\Device\S32K144HFxxxLHx\startup_S32K144.s
      At line 236 in file RTE\Device\S32K144HFxxxLHx\startup_S32K144.s
      At line 237 in file RTE\Device\S32K144HFxxxLHx\startup_S32K144.s
      At line 238 in file RTE\Device\S32K144HFxxxLHx\startup_S32K144.s
      At line 239 in file RTE\Device\S32K144HFxxxLHx\startup_S32K144.s
      At line 240 in file RTE\Device\S32K144HFxxxLHx\startup_S32K144.s
      At line 241 in file RTE\Device\S32K144HFxxxLHx\startup_S32K144.s
      At line 242 in file RTE\Device\S32K144HFxxxLHx\startup_S32K144.s
      At line 243 in file RTE\Device\S32K144HFxxxLHx\startup_S32K144.s
      At line 244 in file RTE\Device\S32K144HFxxxLHx\startup_S32K144.s
      At line 245 in file RTE\Device\S32K144HFxxxLHx\startup_S32K144.s
      At line 246 in file RTE\Device\S32K144HFxxxLHx\startup_S32K144.s
      At line 247 in file RTE\Device\S32K144HFxxxLHx\startup_S32K144.s
      At line 248 in file RTE\Device\S32K144HFxxxLHx\startup_S32K144.s
      At line 249 in file RTE\Device\S32K144HFxxxLHx\startup_S32K144.s
      At line 250 in file RTE\Device\S32K144HFxxxLHx\startup_S32K144.s
      At line 251 in file RTE\Device\S32K144HFxxxLHx\startup_S32K144.s
      At line 252 in file RTE\Device\S32K144HFxxxLHx\startup_S32K144.s
      At line 253 in file RTE\Device\S32K144HFxxxLHx\startup_S32K144.s
      At line 254 in file RTE\Device\S32K144HFxxxLHx\startup_S32K144.s
      At line 255 in file RTE\Device\S32K144HFxxxLHx\startup_S32K144.s
      At line 256 in file RTE\Device\S32K144HFxxxLHx\startup_S32K144.s
      At line 257 in file RTE\Device\S32K144HFxxxLHx\startup_S32K144.s
      At line 258 in file RTE\Device\S32K144HFxxxLHx\startup_S32K144.s
      At line 259 in file RTE\Device\S32K144HFxxxLHx\startup_S32K144.s
      At line 260 in file RTE\Device\S32K144HFxxxLHx\startup_S32K144.s
      At line 261 in file RTE\Device\S32K144HFxxxLHx\startup_S32K144.s
      At line 262 in file RTE\Device\S32K144HFxxxLHx\startup_S32K144.s
      At line 263 in file RTE\Device\S32K144HFxxxLHx\startup_S32K144.s
      At line 264 in file RTE\Device\S32K144HFxxxLHx\startup_S32K144.s
      At line 265 in file RTE\Device\S32K144HFxxxLHx\startup_S32K144.s
      At line 266 in file RTE\Device\S32K144HFxxxLHx\startup_S32K144.s
      At line 267 in file RTE\Device\S32K144HFxxxLHx\startup_S32K144.s
      At line 268 in file RTE\Device\S32K144HFxxxLHx\startup_S32K144.s
      At line 269 in file RTE\Device\S32K144HFxxxLHx\startup_S32K144.s
      At line 270 in file RTE\Device\S32K144HFxxxLHx\startup_S32K144.s
      At line 271 in file RTE\Device\S32K144HFxxxLHx\startup_S32K144.s
      At line 272 in file RTE\Device\S32K144HFxxxLHx\startup_S32K144.s
      At line 273 in file RTE\Device\S32K144HFxxxLHx\startup_S32K144.s
      At line 274 in file RTE\Device\S32K144HFxxxLHx\startup_S32K144.s
      At line 275 in file RTE\Device\S32K144HFxxxLHx\startup_S32K144.s
      At line 276 in file RTE\Device\S32K144HFxxxLHx\startup_S32K144.s
      At line 277 in file RTE\Device\S32K144HFxxxLHx\startup_S32K144.s
      At line 278 in file RTE\Device\S32K144HFxxxLHx\startup_S32K144.s
      At line 279 in file RTE\Device\S32K144HFxxxLHx\startup_S32K144.s
      At line 280 in file RTE\Device\S32K144HFxxxLHx\startup_S32K144.s
      At line 281 in file RTE\Device\S32K144HFxxxLHx\startup_S32K144.s
      At line 282 in file RTE\Device\S32K144HFxxxLHx\startup_S32K144.s
      At line 283 in file RTE\Device\S32K144HFxxxLHx\startup_S32K144.s
      At line 284 in file RTE\Device\S32K144HFxxxLHx\startup_S32K144.s
      At line 285 in file RTE\Device\S32K144HFxxxLHx\startup_S32K144.s



ARM Macro Assembler    Page 8 Alphabetic symbol ordering
Relocatable symbols

      At line 286 in file RTE\Device\S32K144HFxxxLHx\startup_S32K144.s
      At line 287 in file RTE\Device\S32K144HFxxxLHx\startup_S32K144.s
      At line 288 in file RTE\Device\S32K144HFxxxLHx\startup_S32K144.s
      At line 289 in file RTE\Device\S32K144HFxxxLHx\startup_S32K144.s
      At line 290 in file RTE\Device\S32K144HFxxxLHx\startup_S32K144.s
      At line 291 in file RTE\Device\S32K144HFxxxLHx\startup_S32K144.s
      At line 292 in file RTE\Device\S32K144HFxxxLHx\startup_S32K144.s
      At line 293 in file RTE\Device\S32K144HFxxxLHx\startup_S32K144.s
      At line 294 in file RTE\Device\S32K144HFxxxLHx\startup_S32K144.s
      At line 295 in file RTE\Device\S32K144HFxxxLHx\startup_S32K144.s
      At line 296 in file RTE\Device\S32K144HFxxxLHx\startup_S32K144.s
      At line 297 in file RTE\Device\S32K144HFxxxLHx\startup_S32K144.s
      At line 298 in file RTE\Device\S32K144HFxxxLHx\startup_S32K144.s
      At line 299 in file RTE\Device\S32K144HFxxxLHx\startup_S32K144.s
      At line 654 in file RTE\Device\S32K144HFxxxLHx\startup_S32K144.s
      At line 780 in file RTE\Device\S32K144HFxxxLHx\startup_S32K144.s

Default_Handler 00000024

Symbol: Default_Handler
   Definitions
      At line 530 in file RTE\Device\S32K144HFxxxLHx\startup_S32K144.s
   Uses
      None
Comment: Default_Handler unused
ERM_double_fault_IRQHandler 00000024

Symbol: ERM_double_fault_IRQHandler
   Definitions
      At line 701 in file RTE\Device\S32K144HFxxxLHx\startup_S32K144.s
   Uses
      At line 106 in file RTE\Device\S32K144HFxxxLHx\startup_S32K144.s
      At line 576 in file RTE\Device\S32K144HFxxxLHx\startup_S32K144.s

ERM_single_fault_IRQHandler 00000024

Symbol: ERM_single_fault_IRQHandler
   Definitions
      At line 700 in file RTE\Device\S32K144HFxxxLHx\startup_S32K144.s
   Uses
      At line 105 in file RTE\Device\S32K144HFxxxLHx\startup_S32K144.s
      At line 575 in file RTE\Device\S32K144HFxxxLHx\startup_S32K144.s

FLEXIO_IRQHandler 00000024

Symbol: FLEXIO_IRQHandler
   Definitions
      At line 725 in file RTE\Device\S32K144HFxxxLHx\startup_S32K144.s
   Uses
      At line 130 in file RTE\Device\S32K144HFxxxLHx\startup_S32K144.s
      At line 600 in file RTE\Device\S32K144HFxxxLHx\startup_S32K144.s

FTFC_Fault_IRQHandler 00000024

Symbol: FTFC_Fault_IRQHandler
   Definitions
      At line 677 in file RTE\Device\S32K144HFxxxLHx\startup_S32K144.s
   Uses
      At line 82 in file RTE\Device\S32K144HFxxxLHx\startup_S32K144.s



ARM Macro Assembler    Page 9 Alphabetic symbol ordering
Relocatable symbols

      At line 552 in file RTE\Device\S32K144HFxxxLHx\startup_S32K144.s

FTFC_IRQHandler 00000024

Symbol: FTFC_IRQHandler
   Definitions
      At line 674 in file RTE\Device\S32K144HFxxxLHx\startup_S32K144.s
   Uses
      At line 79 in file RTE\Device\S32K144HFxxxLHx\startup_S32K144.s
      At line 549 in file RTE\Device\S32K144HFxxxLHx\startup_S32K144.s

FTM0_Ch0_Ch1_IRQHandler 00000024

Symbol: FTM0_Ch0_Ch1_IRQHandler
   Definitions
      At line 755 in file RTE\Device\S32K144HFxxxLHx\startup_S32K144.s
   Uses
      At line 160 in file RTE\Device\S32K144HFxxxLHx\startup_S32K144.s
      At line 630 in file RTE\Device\S32K144HFxxxLHx\startup_S32K144.s

FTM0_Ch2_Ch3_IRQHandler 00000024

Symbol: FTM0_Ch2_Ch3_IRQHandler
   Definitions
      At line 756 in file RTE\Device\S32K144HFxxxLHx\startup_S32K144.s
   Uses
      At line 161 in file RTE\Device\S32K144HFxxxLHx\startup_S32K144.s
      At line 631 in file RTE\Device\S32K144HFxxxLHx\startup_S32K144.s

FTM0_Ch4_Ch5_IRQHandler 00000024

Symbol: FTM0_Ch4_Ch5_IRQHandler
   Definitions
      At line 757 in file RTE\Device\S32K144HFxxxLHx\startup_S32K144.s
   Uses
      At line 162 in file RTE\Device\S32K144HFxxxLHx\startup_S32K144.s
      At line 632 in file RTE\Device\S32K144HFxxxLHx\startup_S32K144.s

FTM0_Ch6_Ch7_IRQHandler 00000024

Symbol: FTM0_Ch6_Ch7_IRQHandler
   Definitions
      At line 758 in file RTE\Device\S32K144HFxxxLHx\startup_S32K144.s
   Uses
      At line 163 in file RTE\Device\S32K144HFxxxLHx\startup_S32K144.s
      At line 633 in file RTE\Device\S32K144HFxxxLHx\startup_S32K144.s

FTM0_Fault_IRQHandler 00000024

Symbol: FTM0_Fault_IRQHandler
   Definitions
      At line 759 in file RTE\Device\S32K144HFxxxLHx\startup_S32K144.s
   Uses
      At line 164 in file RTE\Device\S32K144HFxxxLHx\startup_S32K144.s
      At line 634 in file RTE\Device\S32K144HFxxxLHx\startup_S32K144.s

FTM0_Ovf_Reload_IRQHandler 00000024

Symbol: FTM0_Ovf_Reload_IRQHandler



ARM Macro Assembler    Page 10 Alphabetic symbol ordering
Relocatable symbols

   Definitions
      At line 760 in file RTE\Device\S32K144HFxxxLHx\startup_S32K144.s
   Uses
      At line 165 in file RTE\Device\S32K144HFxxxLHx\startup_S32K144.s
      At line 635 in file RTE\Device\S32K144HFxxxLHx\startup_S32K144.s

FTM1_Ch0_Ch1_IRQHandler 00000024

Symbol: FTM1_Ch0_Ch1_IRQHandler
   Definitions
      At line 761 in file RTE\Device\S32K144HFxxxLHx\startup_S32K144.s
   Uses
      At line 166 in file RTE\Device\S32K144HFxxxLHx\startup_S32K144.s
      At line 636 in file RTE\Device\S32K144HFxxxLHx\startup_S32K144.s

FTM1_Ch2_Ch3_IRQHandler 00000024

Symbol: FTM1_Ch2_Ch3_IRQHandler
   Definitions
      At line 762 in file RTE\Device\S32K144HFxxxLHx\startup_S32K144.s
   Uses
      At line 167 in file RTE\Device\S32K144HFxxxLHx\startup_S32K144.s
      At line 637 in file RTE\Device\S32K144HFxxxLHx\startup_S32K144.s

FTM1_Ch4_Ch5_IRQHandler 00000024

Symbol: FTM1_Ch4_Ch5_IRQHandler
   Definitions
      At line 763 in file RTE\Device\S32K144HFxxxLHx\startup_S32K144.s
   Uses
      At line 168 in file RTE\Device\S32K144HFxxxLHx\startup_S32K144.s
      At line 638 in file RTE\Device\S32K144HFxxxLHx\startup_S32K144.s

FTM1_Ch6_Ch7_IRQHandler 00000024

Symbol: FTM1_Ch6_Ch7_IRQHandler
   Definitions
      At line 764 in file RTE\Device\S32K144HFxxxLHx\startup_S32K144.s
   Uses
      At line 169 in file RTE\Device\S32K144HFxxxLHx\startup_S32K144.s
      At line 639 in file RTE\Device\S32K144HFxxxLHx\startup_S32K144.s

FTM1_Fault_IRQHandler 00000024

Symbol: FTM1_Fault_IRQHandler
   Definitions
      At line 765 in file RTE\Device\S32K144HFxxxLHx\startup_S32K144.s
   Uses
      At line 170 in file RTE\Device\S32K144HFxxxLHx\startup_S32K144.s
      At line 640 in file RTE\Device\S32K144HFxxxLHx\startup_S32K144.s

FTM1_Ovf_Reload_IRQHandler 00000024

Symbol: FTM1_Ovf_Reload_IRQHandler
   Definitions
      At line 766 in file RTE\Device\S32K144HFxxxLHx\startup_S32K144.s
   Uses
      At line 171 in file RTE\Device\S32K144HFxxxLHx\startup_S32K144.s
      At line 641 in file RTE\Device\S32K144HFxxxLHx\startup_S32K144.s



ARM Macro Assembler    Page 11 Alphabetic symbol ordering
Relocatable symbols


FTM2_Ch0_Ch1_IRQHandler 00000024

Symbol: FTM2_Ch0_Ch1_IRQHandler
   Definitions
      At line 767 in file RTE\Device\S32K144HFxxxLHx\startup_S32K144.s
   Uses
      At line 172 in file RTE\Device\S32K144HFxxxLHx\startup_S32K144.s
      At line 642 in file RTE\Device\S32K144HFxxxLHx\startup_S32K144.s

FTM2_Ch2_Ch3_IRQHandler 00000024

Symbol: FTM2_Ch2_Ch3_IRQHandler
   Definitions
      At line 768 in file RTE\Device\S32K144HFxxxLHx\startup_S32K144.s
   Uses
      At line 173 in file RTE\Device\S32K144HFxxxLHx\startup_S32K144.s
      At line 643 in file RTE\Device\S32K144HFxxxLHx\startup_S32K144.s

FTM2_Ch4_Ch5_IRQHandler 00000024

Symbol: FTM2_Ch4_Ch5_IRQHandler
   Definitions
      At line 769 in file RTE\Device\S32K144HFxxxLHx\startup_S32K144.s
   Uses
      At line 174 in file RTE\Device\S32K144HFxxxLHx\startup_S32K144.s
      At line 644 in file RTE\Device\S32K144HFxxxLHx\startup_S32K144.s

FTM2_Ch6_Ch7_IRQHandler 00000024

Symbol: FTM2_Ch6_Ch7_IRQHandler
   Definitions
      At line 770 in file RTE\Device\S32K144HFxxxLHx\startup_S32K144.s
   Uses
      At line 175 in file RTE\Device\S32K144HFxxxLHx\startup_S32K144.s
      At line 645 in file RTE\Device\S32K144HFxxxLHx\startup_S32K144.s

FTM2_Fault_IRQHandler 00000024

Symbol: FTM2_Fault_IRQHandler
   Definitions
      At line 771 in file RTE\Device\S32K144HFxxxLHx\startup_S32K144.s
   Uses
      At line 176 in file RTE\Device\S32K144HFxxxLHx\startup_S32K144.s
      At line 646 in file RTE\Device\S32K144HFxxxLHx\startup_S32K144.s

FTM2_Ovf_Reload_IRQHandler 00000024

Symbol: FTM2_Ovf_Reload_IRQHandler
   Definitions
      At line 772 in file RTE\Device\S32K144HFxxxLHx\startup_S32K144.s
   Uses
      At line 177 in file RTE\Device\S32K144HFxxxLHx\startup_S32K144.s
      At line 647 in file RTE\Device\S32K144HFxxxLHx\startup_S32K144.s

FTM3_Ch0_Ch1_IRQHandler 00000024

Symbol: FTM3_Ch0_Ch1_IRQHandler
   Definitions



ARM Macro Assembler    Page 12 Alphabetic symbol ordering
Relocatable symbols

      At line 773 in file RTE\Device\S32K144HFxxxLHx\startup_S32K144.s
   Uses
      At line 178 in file RTE\Device\S32K144HFxxxLHx\startup_S32K144.s
      At line 648 in file RTE\Device\S32K144HFxxxLHx\startup_S32K144.s

FTM3_Ch2_Ch3_IRQHandler 00000024

Symbol: FTM3_Ch2_Ch3_IRQHandler
   Definitions
      At line 774 in file RTE\Device\S32K144HFxxxLHx\startup_S32K144.s
   Uses
      At line 179 in file RTE\Device\S32K144HFxxxLHx\startup_S32K144.s
      At line 649 in file RTE\Device\S32K144HFxxxLHx\startup_S32K144.s

FTM3_Ch4_Ch5_IRQHandler 00000024

Symbol: FTM3_Ch4_Ch5_IRQHandler
   Definitions
      At line 775 in file RTE\Device\S32K144HFxxxLHx\startup_S32K144.s
   Uses
      At line 180 in file RTE\Device\S32K144HFxxxLHx\startup_S32K144.s
      At line 650 in file RTE\Device\S32K144HFxxxLHx\startup_S32K144.s

FTM3_Ch6_Ch7_IRQHandler 00000024

Symbol: FTM3_Ch6_Ch7_IRQHandler
   Definitions
      At line 776 in file RTE\Device\S32K144HFxxxLHx\startup_S32K144.s
   Uses
      At line 181 in file RTE\Device\S32K144HFxxxLHx\startup_S32K144.s
      At line 651 in file RTE\Device\S32K144HFxxxLHx\startup_S32K144.s

FTM3_Fault_IRQHandler 00000024

Symbol: FTM3_Fault_IRQHandler
   Definitions
      At line 777 in file RTE\Device\S32K144HFxxxLHx\startup_S32K144.s
   Uses
      At line 182 in file RTE\Device\S32K144HFxxxLHx\startup_S32K144.s
      At line 652 in file RTE\Device\S32K144HFxxxLHx\startup_S32K144.s

FTM3_Ovf_Reload_IRQHandler 00000024

Symbol: FTM3_Ovf_Reload_IRQHandler
   Definitions
      At line 778 in file RTE\Device\S32K144HFxxxLHx\startup_S32K144.s
   Uses
      At line 183 in file RTE\Device\S32K144HFxxxLHx\startup_S32K144.s
      At line 653 in file RTE\Device\S32K144HFxxxLHx\startup_S32K144.s

HardFault_Handler 00000014

Symbol: HardFault_Handler
   Definitions
      At line 490 in file RTE\Device\S32K144HFxxxLHx\startup_S32K144.s
   Uses
      At line 46 in file RTE\Device\S32K144HFxxxLHx\startup_S32K144.s
      At line 491 in file RTE\Device\S32K144HFxxxLHx\startup_S32K144.s




ARM Macro Assembler    Page 13 Alphabetic symbol ordering
Relocatable symbols

LPI2C0_Master_IRQHandler 00000024

Symbol: LPI2C0_Master_IRQHandler
   Definitions
      At line 680 in file RTE\Device\S32K144HFxxxLHx\startup_S32K144.s
   Uses
      At line 85 in file RTE\Device\S32K144HFxxxLHx\startup_S32K144.s
      At line 555 in file RTE\Device\S32K144HFxxxLHx\startup_S32K144.s

LPI2C0_Slave_IRQHandler 00000024

Symbol: LPI2C0_Slave_IRQHandler
   Definitions
      At line 681 in file RTE\Device\S32K144HFxxxLHx\startup_S32K144.s
   Uses
      At line 86 in file RTE\Device\S32K144HFxxxLHx\startup_S32K144.s
      At line 556 in file RTE\Device\S32K144HFxxxLHx\startup_S32K144.s

LPIT0_Ch0_IRQHandler 00000024

Symbol: LPIT0_Ch0_IRQHandler
   Definitions
      At line 704 in file RTE\Device\S32K144HFxxxLHx\startup_S32K144.s
   Uses
      At line 109 in file RTE\Device\S32K144HFxxxLHx\startup_S32K144.s
      At line 579 in file RTE\Device\S32K144HFxxxLHx\startup_S32K144.s

LPIT0_Ch1_IRQHandler 00000024

Symbol: LPIT0_Ch1_IRQHandler
   Definitions
      At line 705 in file RTE\Device\S32K144HFxxxLHx\startup_S32K144.s
   Uses
      At line 110 in file RTE\Device\S32K144HFxxxLHx\startup_S32K144.s
      At line 580 in file RTE\Device\S32K144HFxxxLHx\startup_S32K144.s

LPIT0_Ch2_IRQHandler 00000024

Symbol: LPIT0_Ch2_IRQHandler
   Definitions
      At line 706 in file RTE\Device\S32K144HFxxxLHx\startup_S32K144.s
   Uses
      At line 111 in file RTE\Device\S32K144HFxxxLHx\startup_S32K144.s
      At line 581 in file RTE\Device\S32K144HFxxxLHx\startup_S32K144.s

LPIT0_Ch3_IRQHandler 00000024

Symbol: LPIT0_Ch3_IRQHandler
   Definitions
      At line 707 in file RTE\Device\S32K144HFxxxLHx\startup_S32K144.s
   Uses
      At line 112 in file RTE\Device\S32K144HFxxxLHx\startup_S32K144.s
      At line 582 in file RTE\Device\S32K144HFxxxLHx\startup_S32K144.s

LPSPI0_IRQHandler 00000024

Symbol: LPSPI0_IRQHandler
   Definitions
      At line 682 in file RTE\Device\S32K144HFxxxLHx\startup_S32K144.s



ARM Macro Assembler    Page 14 Alphabetic symbol ordering
Relocatable symbols

   Uses
      At line 87 in file RTE\Device\S32K144HFxxxLHx\startup_S32K144.s
      At line 557 in file RTE\Device\S32K144HFxxxLHx\startup_S32K144.s

LPSPI1_IRQHandler 00000024

Symbol: LPSPI1_IRQHandler
   Definitions
      At line 683 in file RTE\Device\S32K144HFxxxLHx\startup_S32K144.s
   Uses
      At line 88 in file RTE\Device\S32K144HFxxxLHx\startup_S32K144.s
      At line 558 in file RTE\Device\S32K144HFxxxLHx\startup_S32K144.s

LPSPI2_IRQHandler 00000024

Symbol: LPSPI2_IRQHandler
   Definitions
      At line 684 in file RTE\Device\S32K144HFxxxLHx\startup_S32K144.s
   Uses
      At line 89 in file RTE\Device\S32K144HFxxxLHx\startup_S32K144.s
      At line 559 in file RTE\Device\S32K144HFxxxLHx\startup_S32K144.s

LPTMR0_IRQHandler 00000024

Symbol: LPTMR0_IRQHandler
   Definitions
      At line 714 in file RTE\Device\S32K144HFxxxLHx\startup_S32K144.s
   Uses
      At line 119 in file RTE\Device\S32K144HFxxxLHx\startup_S32K144.s
      At line 589 in file RTE\Device\S32K144HFxxxLHx\startup_S32K144.s

LPUART0_RxTx_IRQHandler 00000024

Symbol: LPUART0_RxTx_IRQHandler
   Definitions
      At line 687 in file RTE\Device\S32K144HFxxxLHx\startup_S32K144.s
   Uses
      At line 92 in file RTE\Device\S32K144HFxxxLHx\startup_S32K144.s
      At line 562 in file RTE\Device\S32K144HFxxxLHx\startup_S32K144.s

LPUART1_RxTx_IRQHandler 00000024

Symbol: LPUART1_RxTx_IRQHandler
   Definitions
      At line 689 in file RTE\Device\S32K144HFxxxLHx\startup_S32K144.s
   Uses
      At line 94 in file RTE\Device\S32K144HFxxxLHx\startup_S32K144.s
      At line 564 in file RTE\Device\S32K144HFxxxLHx\startup_S32K144.s

LPUART2_RxTx_IRQHandler 00000024

Symbol: LPUART2_RxTx_IRQHandler
   Definitions
      At line 691 in file RTE\Device\S32K144HFxxxLHx\startup_S32K144.s
   Uses
      At line 96 in file RTE\Device\S32K144HFxxxLHx\startup_S32K144.s
      At line 566 in file RTE\Device\S32K144HFxxxLHx\startup_S32K144.s

LVD_LVW_IRQHandler 00000024



ARM Macro Assembler    Page 15 Alphabetic symbol ordering
Relocatable symbols


Symbol: LVD_LVW_IRQHandler
   Definitions
      At line 676 in file RTE\Device\S32K144HFxxxLHx\startup_S32K144.s
   Uses
      At line 81 in file RTE\Device\S32K144HFxxxLHx\startup_S32K144.s
      At line 551 in file RTE\Device\S32K144HFxxxLHx\startup_S32K144.s

MCM_IRQHandler 00000024

Symbol: MCM_IRQHandler
   Definitions
      At line 673 in file RTE\Device\S32K144HFxxxLHx\startup_S32K144.s
   Uses
      At line 78 in file RTE\Device\S32K144HFxxxLHx\startup_S32K144.s
      At line 548 in file RTE\Device\S32K144HFxxxLHx\startup_S32K144.s

MemManage_Handler 00000016

Symbol: MemManage_Handler
   Definitions
      At line 495 in file RTE\Device\S32K144HFxxxLHx\startup_S32K144.s
   Uses
      At line 47 in file RTE\Device\S32K144HFxxxLHx\startup_S32K144.s
      At line 496 in file RTE\Device\S32K144HFxxxLHx\startup_S32K144.s

NMI_Handler 00000012

Symbol: NMI_Handler
   Definitions
      At line 485 in file RTE\Device\S32K144HFxxxLHx\startup_S32K144.s
   Uses
      At line 45 in file RTE\Device\S32K144HFxxxLHx\startup_S32K144.s
      At line 486 in file RTE\Device\S32K144HFxxxLHx\startup_S32K144.s

PDB0_IRQHandler 00000024

Symbol: PDB0_IRQHandler
   Definitions
      At line 708 in file RTE\Device\S32K144HFxxxLHx\startup_S32K144.s
   Uses
      At line 113 in file RTE\Device\S32K144HFxxxLHx\startup_S32K144.s
      At line 583 in file RTE\Device\S32K144HFxxxLHx\startup_S32K144.s

PDB1_IRQHandler 00000024

Symbol: PDB1_IRQHandler
   Definitions
      At line 724 in file RTE\Device\S32K144HFxxxLHx\startup_S32K144.s
   Uses
      At line 129 in file RTE\Device\S32K144HFxxxLHx\startup_S32K144.s
      At line 599 in file RTE\Device\S32K144HFxxxLHx\startup_S32K144.s

PORTA_IRQHandler 00000024

Symbol: PORTA_IRQHandler
   Definitions
      At line 715 in file RTE\Device\S32K144HFxxxLHx\startup_S32K144.s
   Uses



ARM Macro Assembler    Page 16 Alphabetic symbol ordering
Relocatable symbols

      At line 120 in file RTE\Device\S32K144HFxxxLHx\startup_S32K144.s
      At line 590 in file RTE\Device\S32K144HFxxxLHx\startup_S32K144.s

PORTB_IRQHandler 00000024

Symbol: PORTB_IRQHandler
   Definitions
      At line 716 in file RTE\Device\S32K144HFxxxLHx\startup_S32K144.s
   Uses
      At line 121 in file RTE\Device\S32K144HFxxxLHx\startup_S32K144.s
      At line 591 in file RTE\Device\S32K144HFxxxLHx\startup_S32K144.s

PORTC_IRQHandler 00000024

Symbol: PORTC_IRQHandler
   Definitions
      At line 717 in file RTE\Device\S32K144HFxxxLHx\startup_S32K144.s
   Uses
      At line 122 in file RTE\Device\S32K144HFxxxLHx\startup_S32K144.s
      At line 592 in file RTE\Device\S32K144HFxxxLHx\startup_S32K144.s

PORTD_IRQHandler 00000024

Symbol: PORTD_IRQHandler
   Definitions
      At line 718 in file RTE\Device\S32K144HFxxxLHx\startup_S32K144.s
   Uses
      At line 123 in file RTE\Device\S32K144HFxxxLHx\startup_S32K144.s
      At line 593 in file RTE\Device\S32K144HFxxxLHx\startup_S32K144.s

PORTE_IRQHandler 00000024

Symbol: PORTE_IRQHandler
   Definitions
      At line 719 in file RTE\Device\S32K144HFxxxLHx\startup_S32K144.s
   Uses
      At line 124 in file RTE\Device\S32K144HFxxxLHx\startup_S32K144.s
      At line 594 in file RTE\Device\S32K144HFxxxLHx\startup_S32K144.s

PendSV_Handler 00000020

Symbol: PendSV_Handler
   Definitions
      At line 520 in file RTE\Device\S32K144HFxxxLHx\startup_S32K144.s
   Uses
      At line 57 in file RTE\Device\S32K144HFxxxLHx\startup_S32K144.s
      At line 521 in file RTE\Device\S32K144HFxxxLHx\startup_S32K144.s

RCM_IRQHandler 00000024

Symbol: RCM_IRQHandler
   Definitions
      At line 679 in file RTE\Device\S32K144HFxxxLHx\startup_S32K144.s
   Uses
      At line 84 in file RTE\Device\S32K144HFxxxLHx\startup_S32K144.s
      At line 554 in file RTE\Device\S32K144HFxxxLHx\startup_S32K144.s

RTC_IRQHandler 00000024




ARM Macro Assembler    Page 17 Alphabetic symbol ordering
Relocatable symbols

Symbol: RTC_IRQHandler
   Definitions
      At line 702 in file RTE\Device\S32K144HFxxxLHx\startup_S32K144.s
   Uses
      At line 107 in file RTE\Device\S32K144HFxxxLHx\startup_S32K144.s
      At line 577 in file RTE\Device\S32K144HFxxxLHx\startup_S32K144.s

RTC_Seconds_IRQHandler 00000024

Symbol: RTC_Seconds_IRQHandler
   Definitions
      At line 703 in file RTE\Device\S32K144HFxxxLHx\startup_S32K144.s
   Uses
      At line 108 in file RTE\Device\S32K144HFxxxLHx\startup_S32K144.s
      At line 578 in file RTE\Device\S32K144HFxxxLHx\startup_S32K144.s

Read_Collision_IRQHandler 00000024

Symbol: Read_Collision_IRQHandler
   Definitions
      At line 675 in file RTE\Device\S32K144HFxxxLHx\startup_S32K144.s
   Uses
      At line 80 in file RTE\Device\S32K144HFxxxLHx\startup_S32K144.s
      At line 550 in file RTE\Device\S32K144HFxxxLHx\startup_S32K144.s

Reserved100_IRQHandler 00000024

Symbol: Reserved100_IRQHandler
   Definitions
      At line 740 in file RTE\Device\S32K144HFxxxLHx\startup_S32K144.s
   Uses
      At line 145 in file RTE\Device\S32K144HFxxxLHx\startup_S32K144.s
      At line 615 in file RTE\Device\S32K144HFxxxLHx\startup_S32K144.s

Reserved103_IRQHandler 00000024

Symbol: Reserved103_IRQHandler
   Definitions
      At line 743 in file RTE\Device\S32K144HFxxxLHx\startup_S32K144.s
   Uses
      At line 148 in file RTE\Device\S32K144HFxxxLHx\startup_S32K144.s
      At line 618 in file RTE\Device\S32K144HFxxxLHx\startup_S32K144.s

Reserved105_IRQHandler 00000024

Symbol: Reserved105_IRQHandler
   Definitions
      At line 745 in file RTE\Device\S32K144HFxxxLHx\startup_S32K144.s
   Uses
      At line 150 in file RTE\Device\S32K144HFxxxLHx\startup_S32K144.s
      At line 620 in file RTE\Device\S32K144HFxxxLHx\startup_S32K144.s

Reserved106_IRQHandler 00000024

Symbol: Reserved106_IRQHandler
   Definitions
      At line 746 in file RTE\Device\S32K144HFxxxLHx\startup_S32K144.s
   Uses
      At line 151 in file RTE\Device\S32K144HFxxxLHx\startup_S32K144.s



ARM Macro Assembler    Page 18 Alphabetic symbol ordering
Relocatable symbols

      At line 621 in file RTE\Device\S32K144HFxxxLHx\startup_S32K144.s

Reserved107_IRQHandler 00000024

Symbol: Reserved107_IRQHandler
   Definitions
      At line 747 in file RTE\Device\S32K144HFxxxLHx\startup_S32K144.s
   Uses
      At line 152 in file RTE\Device\S32K144HFxxxLHx\startup_S32K144.s
      At line 622 in file RTE\Device\S32K144HFxxxLHx\startup_S32K144.s

Reserved110_IRQHandler 00000024

Symbol: Reserved110_IRQHandler
   Definitions
      At line 750 in file RTE\Device\S32K144HFxxxLHx\startup_S32K144.s
   Uses
      At line 155 in file RTE\Device\S32K144HFxxxLHx\startup_S32K144.s
      At line 625 in file RTE\Device\S32K144HFxxxLHx\startup_S32K144.s

Reserved112_IRQHandler 00000024

Symbol: Reserved112_IRQHandler
   Definitions
      At line 752 in file RTE\Device\S32K144HFxxxLHx\startup_S32K144.s
   Uses
      At line 157 in file RTE\Device\S32K144HFxxxLHx\startup_S32K144.s
      At line 627 in file RTE\Device\S32K144HFxxxLHx\startup_S32K144.s

Reserved113_IRQHandler 00000024

Symbol: Reserved113_IRQHandler
   Definitions
      At line 753 in file RTE\Device\S32K144HFxxxLHx\startup_S32K144.s
   Uses
      At line 158 in file RTE\Device\S32K144HFxxxLHx\startup_S32K144.s
      At line 628 in file RTE\Device\S32K144HFxxxLHx\startup_S32K144.s

Reserved114_IRQHandler 00000024

Symbol: Reserved114_IRQHandler
   Definitions
      At line 754 in file RTE\Device\S32K144HFxxxLHx\startup_S32K144.s
   Uses
      At line 159 in file RTE\Device\S32K144HFxxxLHx\startup_S32K144.s
      At line 629 in file RTE\Device\S32K144HFxxxLHx\startup_S32K144.s

Reserved45_IRQHandler 00000024

Symbol: Reserved45_IRQHandler
   Definitions
      At line 685 in file RTE\Device\S32K144HFxxxLHx\startup_S32K144.s
   Uses
      At line 90 in file RTE\Device\S32K144HFxxxLHx\startup_S32K144.s
      At line 560 in file RTE\Device\S32K144HFxxxLHx\startup_S32K144.s

Reserved46_IRQHandler 00000024

Symbol: Reserved46_IRQHandler



ARM Macro Assembler    Page 19 Alphabetic symbol ordering
Relocatable symbols

   Definitions
      At line 686 in file RTE\Device\S32K144HFxxxLHx\startup_S32K144.s
   Uses
      At line 91 in file RTE\Device\S32K144HFxxxLHx\startup_S32K144.s
      At line 561 in file RTE\Device\S32K144HFxxxLHx\startup_S32K144.s

Reserved48_IRQHandler 00000024

Symbol: Reserved48_IRQHandler
   Definitions
      At line 688 in file RTE\Device\S32K144HFxxxLHx\startup_S32K144.s
   Uses
      At line 93 in file RTE\Device\S32K144HFxxxLHx\startup_S32K144.s
      At line 563 in file RTE\Device\S32K144HFxxxLHx\startup_S32K144.s

Reserved50_IRQHandler 00000024

Symbol: Reserved50_IRQHandler
   Definitions
      At line 690 in file RTE\Device\S32K144HFxxxLHx\startup_S32K144.s
   Uses
      At line 95 in file RTE\Device\S32K144HFxxxLHx\startup_S32K144.s
      At line 565 in file RTE\Device\S32K144HFxxxLHx\startup_S32K144.s

Reserved52_IRQHandler 00000024

Symbol: Reserved52_IRQHandler
   Definitions
      At line 692 in file RTE\Device\S32K144HFxxxLHx\startup_S32K144.s
   Uses
      At line 97 in file RTE\Device\S32K144HFxxxLHx\startup_S32K144.s
      At line 567 in file RTE\Device\S32K144HFxxxLHx\startup_S32K144.s

Reserved53_IRQHandler 00000024

Symbol: Reserved53_IRQHandler
   Definitions
      At line 693 in file RTE\Device\S32K144HFxxxLHx\startup_S32K144.s
   Uses
      At line 98 in file RTE\Device\S32K144HFxxxLHx\startup_S32K144.s
      At line 568 in file RTE\Device\S32K144HFxxxLHx\startup_S32K144.s

Reserved54_IRQHandler 00000024

Symbol: Reserved54_IRQHandler
   Definitions
      At line 694 in file RTE\Device\S32K144HFxxxLHx\startup_S32K144.s
   Uses
      At line 99 in file RTE\Device\S32K144HFxxxLHx\startup_S32K144.s
      At line 569 in file RTE\Device\S32K144HFxxxLHx\startup_S32K144.s

Reserved58_IRQHandler 00000024

Symbol: Reserved58_IRQHandler
   Definitions
      At line 698 in file RTE\Device\S32K144HFxxxLHx\startup_S32K144.s
   Uses
      At line 103 in file RTE\Device\S32K144HFxxxLHx\startup_S32K144.s
      At line 573 in file RTE\Device\S32K144HFxxxLHx\startup_S32K144.s



ARM Macro Assembler    Page 20 Alphabetic symbol ordering
Relocatable symbols


Reserved59_IRQHandler 00000024

Symbol: Reserved59_IRQHandler
   Definitions
      At line 699 in file RTE\Device\S32K144HFxxxLHx\startup_S32K144.s
   Uses
      At line 104 in file RTE\Device\S32K144HFxxxLHx\startup_S32K144.s
      At line 574 in file RTE\Device\S32K144HFxxxLHx\startup_S32K144.s

Reserved69_IRQHandler 00000024

Symbol: Reserved69_IRQHandler
   Definitions
      At line 709 in file RTE\Device\S32K144HFxxxLHx\startup_S32K144.s
   Uses
      At line 114 in file RTE\Device\S32K144HFxxxLHx\startup_S32K144.s
      At line 584 in file RTE\Device\S32K144HFxxxLHx\startup_S32K144.s

Reserved70_IRQHandler 00000024

Symbol: Reserved70_IRQHandler
   Definitions
      At line 710 in file RTE\Device\S32K144HFxxxLHx\startup_S32K144.s
   Uses
      At line 115 in file RTE\Device\S32K144HFxxxLHx\startup_S32K144.s
      At line 585 in file RTE\Device\S32K144HFxxxLHx\startup_S32K144.s

Reserved71_IRQHandler 00000024

Symbol: Reserved71_IRQHandler
   Definitions
      At line 711 in file RTE\Device\S32K144HFxxxLHx\startup_S32K144.s
   Uses
      At line 116 in file RTE\Device\S32K144HFxxxLHx\startup_S32K144.s
      At line 586 in file RTE\Device\S32K144HFxxxLHx\startup_S32K144.s

Reserved72_IRQHandler 00000024

Symbol: Reserved72_IRQHandler
   Definitions
      At line 712 in file RTE\Device\S32K144HFxxxLHx\startup_S32K144.s
   Uses
      At line 117 in file RTE\Device\S32K144HFxxxLHx\startup_S32K144.s
      At line 587 in file RTE\Device\S32K144HFxxxLHx\startup_S32K144.s

Reserved81_IRQHandler 00000024

Symbol: Reserved81_IRQHandler
   Definitions
      At line 721 in file RTE\Device\S32K144HFxxxLHx\startup_S32K144.s
   Uses
      At line 126 in file RTE\Device\S32K144HFxxxLHx\startup_S32K144.s
      At line 596 in file RTE\Device\S32K144HFxxxLHx\startup_S32K144.s

Reserved82_IRQHandler 00000024

Symbol: Reserved82_IRQHandler
   Definitions



ARM Macro Assembler    Page 21 Alphabetic symbol ordering
Relocatable symbols

      At line 722 in file RTE\Device\S32K144HFxxxLHx\startup_S32K144.s
   Uses
      At line 127 in file RTE\Device\S32K144HFxxxLHx\startup_S32K144.s
      At line 597 in file RTE\Device\S32K144HFxxxLHx\startup_S32K144.s

Reserved83_IRQHandler 00000024

Symbol: Reserved83_IRQHandler
   Definitions
      At line 723 in file RTE\Device\S32K144HFxxxLHx\startup_S32K144.s
   Uses
      At line 128 in file RTE\Device\S32K144HFxxxLHx\startup_S32K144.s
      At line 598 in file RTE\Device\S32K144HFxxxLHx\startup_S32K144.s

Reserved86_IRQHandler 00000024

Symbol: Reserved86_IRQHandler
   Definitions
      At line 726 in file RTE\Device\S32K144HFxxxLHx\startup_S32K144.s
   Uses
      At line 131 in file RTE\Device\S32K144HFxxxLHx\startup_S32K144.s
      At line 601 in file RTE\Device\S32K144HFxxxLHx\startup_S32K144.s

Reserved87_IRQHandler 00000024

Symbol: Reserved87_IRQHandler
   Definitions
      At line 727 in file RTE\Device\S32K144HFxxxLHx\startup_S32K144.s
   Uses
      At line 132 in file RTE\Device\S32K144HFxxxLHx\startup_S32K144.s
      At line 602 in file RTE\Device\S32K144HFxxxLHx\startup_S32K144.s

Reserved88_IRQHandler 00000024

Symbol: Reserved88_IRQHandler
   Definitions
      At line 728 in file RTE\Device\S32K144HFxxxLHx\startup_S32K144.s
   Uses
      At line 133 in file RTE\Device\S32K144HFxxxLHx\startup_S32K144.s
      At line 603 in file RTE\Device\S32K144HFxxxLHx\startup_S32K144.s

Reserved89_IRQHandler 00000024

Symbol: Reserved89_IRQHandler
   Definitions
      At line 729 in file RTE\Device\S32K144HFxxxLHx\startup_S32K144.s
   Uses
      At line 134 in file RTE\Device\S32K144HFxxxLHx\startup_S32K144.s
      At line 604 in file RTE\Device\S32K144HFxxxLHx\startup_S32K144.s

Reserved90_IRQHandler 00000024

Symbol: Reserved90_IRQHandler
   Definitions
      At line 730 in file RTE\Device\S32K144HFxxxLHx\startup_S32K144.s
   Uses
      At line 135 in file RTE\Device\S32K144HFxxxLHx\startup_S32K144.s
      At line 605 in file RTE\Device\S32K144HFxxxLHx\startup_S32K144.s




ARM Macro Assembler    Page 22 Alphabetic symbol ordering
Relocatable symbols

Reserved91_IRQHandler 00000024

Symbol: Reserved91_IRQHandler
   Definitions
      At line 731 in file RTE\Device\S32K144HFxxxLHx\startup_S32K144.s
   Uses
      At line 136 in file RTE\Device\S32K144HFxxxLHx\startup_S32K144.s
      At line 606 in file RTE\Device\S32K144HFxxxLHx\startup_S32K144.s

Reserved92_IRQHandler 00000024

Symbol: Reserved92_IRQHandler
   Definitions
      At line 732 in file RTE\Device\S32K144HFxxxLHx\startup_S32K144.s
   Uses
      At line 137 in file RTE\Device\S32K144HFxxxLHx\startup_S32K144.s
      At line 607 in file RTE\Device\S32K144HFxxxLHx\startup_S32K144.s

Reserved93_IRQHandler 00000024

Symbol: Reserved93_IRQHandler
   Definitions
      At line 733 in file RTE\Device\S32K144HFxxxLHx\startup_S32K144.s
   Uses
      At line 138 in file RTE\Device\S32K144HFxxxLHx\startup_S32K144.s
      At line 608 in file RTE\Device\S32K144HFxxxLHx\startup_S32K144.s

Reserved99_IRQHandler 00000024

Symbol: Reserved99_IRQHandler
   Definitions
      At line 739 in file RTE\Device\S32K144HFxxxLHx\startup_S32K144.s
   Uses
      At line 144 in file RTE\Device\S32K144HFxxxLHx\startup_S32K144.s
      At line 614 in file RTE\Device\S32K144HFxxxLHx\startup_S32K144.s

Reset_Handler 00000000

Symbol: Reset_Handler
   Definitions
      At line 462 in file RTE\Device\S32K144HFxxxLHx\startup_S32K144.s
   Uses
      At line 44 in file RTE\Device\S32K144HFxxxLHx\startup_S32K144.s
      At line 463 in file RTE\Device\S32K144HFxxxLHx\startup_S32K144.s

SCG_IRQHandler 00000024

Symbol: SCG_IRQHandler
   Definitions
      At line 713 in file RTE\Device\S32K144HFxxxLHx\startup_S32K144.s
   Uses
      At line 118 in file RTE\Device\S32K144HFxxxLHx\startup_S32K144.s
      At line 588 in file RTE\Device\S32K144HFxxxLHx\startup_S32K144.s

SVC_Handler 0000001C

Symbol: SVC_Handler
   Definitions
      At line 510 in file RTE\Device\S32K144HFxxxLHx\startup_S32K144.s



ARM Macro Assembler    Page 23 Alphabetic symbol ordering
Relocatable symbols

   Uses
      At line 54 in file RTE\Device\S32K144HFxxxLHx\startup_S32K144.s
      At line 511 in file RTE\Device\S32K144HFxxxLHx\startup_S32K144.s

SWI_IRQHandler 00000024

Symbol: SWI_IRQHandler
   Definitions
      At line 720 in file RTE\Device\S32K144HFxxxLHx\startup_S32K144.s
   Uses
      At line 125 in file RTE\Device\S32K144HFxxxLHx\startup_S32K144.s
      At line 595 in file RTE\Device\S32K144HFxxxLHx\startup_S32K144.s

SysTick_Handler 00000022

Symbol: SysTick_Handler
   Definitions
      At line 525 in file RTE\Device\S32K144HFxxxLHx\startup_S32K144.s
   Uses
      At line 58 in file RTE\Device\S32K144HFxxxLHx\startup_S32K144.s
      At line 526 in file RTE\Device\S32K144HFxxxLHx\startup_S32K144.s

UsageFault_Handler 0000001A

Symbol: UsageFault_Handler
   Definitions
      At line 505 in file RTE\Device\S32K144HFxxxLHx\startup_S32K144.s
   Uses
      At line 49 in file RTE\Device\S32K144HFxxxLHx\startup_S32K144.s
      At line 506 in file RTE\Device\S32K144HFxxxLHx\startup_S32K144.s

WDOG_EWM_IRQHandler 00000024

Symbol: WDOG_EWM_IRQHandler
   Definitions
      At line 678 in file RTE\Device\S32K144HFxxxLHx\startup_S32K144.s
   Uses
      At line 83 in file RTE\Device\S32K144HFxxxLHx\startup_S32K144.s
      At line 553 in file RTE\Device\S32K144HFxxxLHx\startup_S32K144.s

136 symbols



ARM Macro Assembler    Page 1 Alphabetic symbol ordering
Absolute symbols

BackDoorK0 000000FF

Symbol: BackDoorK0
   Definitions
      At line 317 in file RTE\Device\S32K144HFxxxLHx\startup_S32K144.s
   Uses
      At line 451 in file RTE\Device\S32K144HFxxxLHx\startup_S32K144.s
Comment: BackDoorK0 used once
BackDoorK1 000000FF

Symbol: BackDoorK1
   Definitions
      At line 318 in file RTE\Device\S32K144HFxxxLHx\startup_S32K144.s
   Uses
      At line 451 in file RTE\Device\S32K144HFxxxLHx\startup_S32K144.s
Comment: BackDoorK1 used once
BackDoorK2 000000FF

Symbol: BackDoorK2
   Definitions
      At line 319 in file RTE\Device\S32K144HFxxxLHx\startup_S32K144.s
   Uses
      At line 451 in file RTE\Device\S32K144HFxxxLHx\startup_S32K144.s
Comment: BackDoorK2 used once
BackDoorK3 000000FF

Symbol: BackDoorK3
   Definitions
      At line 320 in file RTE\Device\S32K144HFxxxLHx\startup_S32K144.s
   Uses
      At line 451 in file RTE\Device\S32K144HFxxxLHx\startup_S32K144.s
Comment: BackDoorK3 used once
BackDoorK4 000000FF

Symbol: BackDoorK4
   Definitions
      At line 321 in file RTE\Device\S32K144HFxxxLHx\startup_S32K144.s
   Uses
      At line 452 in file RTE\Device\S32K144HFxxxLHx\startup_S32K144.s
Comment: BackDoorK4 used once
BackDoorK5 000000FF

Symbol: BackDoorK5
   Definitions
      At line 322 in file RTE\Device\S32K144HFxxxLHx\startup_S32K144.s
   Uses
      At line 452 in file RTE\Device\S32K144HFxxxLHx\startup_S32K144.s
Comment: BackDoorK5 used once
BackDoorK6 000000FF

Symbol: BackDoorK6
   Definitions
      At line 323 in file RTE\Device\S32K144HFxxxLHx\startup_S32K144.s
   Uses
      At line 452 in file RTE\Device\S32K144HFxxxLHx\startup_S32K144.s
Comment: BackDoorK6 used once
BackDoorK7 000000FF

Symbol: BackDoorK7



ARM Macro Assembler    Page 2 Alphabetic symbol ordering
Absolute symbols

   Definitions
      At line 324 in file RTE\Device\S32K144HFxxxLHx\startup_S32K144.s
   Uses
      At line 452 in file RTE\Device\S32K144HFxxxLHx\startup_S32K144.s
Comment: BackDoorK7 used once
FDPROT 000000FF

Symbol: FDPROT
   Definitions
      At line 398 in file RTE\Device\S32K144HFxxxLHx\startup_S32K144.s
   Uses
      At line 454 in file RTE\Device\S32K144HFxxxLHx\startup_S32K144.s
Comment: FDPROT used once
FEPROT 000000FF

Symbol: FEPROT
   Definitions
      At line 412 in file RTE\Device\S32K144HFxxxLHx\startup_S32K144.s
   Uses
      At line 454 in file RTE\Device\S32K144HFxxxLHx\startup_S32K144.s
Comment: FEPROT used once
FOPT 0000007F

Symbol: FOPT
   Definitions
      At line 425 in file RTE\Device\S32K144HFxxxLHx\startup_S32K144.s
   Uses
      At line 454 in file RTE\Device\S32K144HFxxxLHx\startup_S32K144.s
Comment: FOPT used once
FPROT0 000000FF

Symbol: FPROT0
   Definitions
      At line 341 in file RTE\Device\S32K144HFxxxLHx\startup_S32K144.s
   Uses
      At line 453 in file RTE\Device\S32K144HFxxxLHx\startup_S32K144.s
Comment: FPROT0 used once
FPROT1 000000FF

Symbol: FPROT1
   Definitions
      At line 355 in file RTE\Device\S32K144HFxxxLHx\startup_S32K144.s
   Uses
      At line 453 in file RTE\Device\S32K144HFxxxLHx\startup_S32K144.s
Comment: FPROT1 used once
FPROT2 000000FF

Symbol: FPROT2
   Definitions
      At line 369 in file RTE\Device\S32K144HFxxxLHx\startup_S32K144.s
   Uses
      At line 453 in file RTE\Device\S32K144HFxxxLHx\startup_S32K144.s
Comment: FPROT2 used once
FPROT3 000000FF

Symbol: FPROT3
   Definitions
      At line 383 in file RTE\Device\S32K144HFxxxLHx\startup_S32K144.s
   Uses



ARM Macro Assembler    Page 3 Alphabetic symbol ordering
Absolute symbols

      At line 453 in file RTE\Device\S32K144HFxxxLHx\startup_S32K144.s
Comment: FPROT3 used once
FSEC 000000FE

Symbol: FSEC
   Definitions
      At line 445 in file RTE\Device\S32K144HFxxxLHx\startup_S32K144.s
   Uses
      At line 454 in file RTE\Device\S32K144HFxxxLHx\startup_S32K144.s
Comment: FSEC used once
__Vectors_Size 00000400

Symbol: __Vectors_Size
   Definitions
      At line 303 in file RTE\Device\S32K144HFxxxLHx\startup_S32K144.s
   Uses
      At line 40 in file RTE\Device\S32K144HFxxxLHx\startup_S32K144.s
Comment: __Vectors_Size used once
nFDPROT 00000000

Symbol: nFDPROT
   Definitions
      At line 397 in file RTE\Device\S32K144HFxxxLHx\startup_S32K144.s
   Uses
      At line 398 in file RTE\Device\S32K144HFxxxLHx\startup_S32K144.s
Comment: nFDPROT used once
nFEPROT 00000000

Symbol: nFEPROT
   Definitions
      At line 411 in file RTE\Device\S32K144HFxxxLHx\startup_S32K144.s
   Uses
      At line 412 in file RTE\Device\S32K144HFxxxLHx\startup_S32K144.s
Comment: nFEPROT used once
nFPROT0 00000000

Symbol: nFPROT0
   Definitions
      At line 340 in file RTE\Device\S32K144HFxxxLHx\startup_S32K144.s
   Uses
      At line 341 in file RTE\Device\S32K144HFxxxLHx\startup_S32K144.s
Comment: nFPROT0 used once
nFPROT1 00000000

Symbol: nFPROT1
   Definitions
      At line 354 in file RTE\Device\S32K144HFxxxLHx\startup_S32K144.s
   Uses
      At line 355 in file RTE\Device\S32K144HFxxxLHx\startup_S32K144.s
Comment: nFPROT1 used once
nFPROT2 00000000

Symbol: nFPROT2
   Definitions
      At line 368 in file RTE\Device\S32K144HFxxxLHx\startup_S32K144.s
   Uses
      At line 369 in file RTE\Device\S32K144HFxxxLHx\startup_S32K144.s
Comment: nFPROT2 used once
nFPROT3 00000000



ARM Macro Assembler    Page 4 Alphabetic symbol ordering
Absolute symbols


Symbol: nFPROT3
   Definitions
      At line 382 in file RTE\Device\S32K144HFxxxLHx\startup_S32K144.s
   Uses
      At line 383 in file RTE\Device\S32K144HFxxxLHx\startup_S32K144.s
Comment: nFPROT3 used once
23 symbols



ARM Macro Assembler    Page 1 Alphabetic symbol ordering
External symbols

Image$$ARM_LIB_STACK$$ZI$$Limit 00000000

Symbol: Image$$ARM_LIB_STACK$$ZI$$Limit
   Definitions
      At line 41 in file RTE\Device\S32K144HFxxxLHx\startup_S32K144.s
   Uses
      At line 43 in file RTE\Device\S32K144HFxxxLHx\startup_S32K144.s
Comment: Image$$ARM_LIB_STACK$$ZI$$Limit used once
SystemInit 00000000

Symbol: SystemInit
   Definitions
      At line 464 in file RTE\Device\S32K144HFxxxLHx\startup_S32K144.s
   Uses
      At line 473 in file RTE\Device\S32K144HFxxxLHx\startup_S32K144.s
Comment: SystemInit used once
__main 00000000

Symbol: __main
   Definitions
      At line 466 in file RTE\Device\S32K144HFxxxLHx\startup_S32K144.s
   Uses
      At line 478 in file RTE\Device\S32K144HFxxxLHx\startup_S32K144.s
Comment: __main used once
init_data_bss 00000000

Symbol: init_data_bss
   Definitions
      At line 465 in file RTE\Device\S32K144HFxxxLHx\startup_S32K144.s
   Uses
      At line 475 in file RTE\Device\S32K144HFxxxLHx\startup_S32K144.s
Comment: init_data_bss used once
4 symbols
508 symbols in table
